

Microchip MPLAB XC8 Assembler V2.46 build 20240104201356 
                                                                                               Sun Oct 06 00:25:22 2024

Microchip MPLAB XC8 C Compiler v2.46 (Free license) build 20240104201356 Og1 
     1                           	processor	18F4620
     2                           	fnconf	rparam,??,?,0
     3                           	pagewidth 120
     4                           	opt	flic
     5                           	psect	idataCOMRAM,global,class=CODE,delta=1,noexec
     6                           	psect	idataBANK0,global,class=CODE,delta=1,noexec
     7                           	psect	smallconst,global,reloc=2,class=SMALLCONST,delta=1,noexec
     8                           	psect	cinit,global,reloc=2,class=CODE,delta=1
     9                           	psect	bssCOMRAM,global,class=COMRAM,space=1,delta=1,lowdata,noexec
    10                           	psect	dataCOMRAM,global,class=COMRAM,space=1,delta=1,lowdata,noexec
    11                           	psect	bssBANK0,global,class=BANK0,space=1,delta=1,lowdata,noexec
    12                           	psect	dataBANK0,global,class=BANK0,space=1,delta=1,lowdata,noexec
    13                           	psect	cstackCOMRAM,global,class=COMRAM,space=1,delta=1,lowdata,noexec
    14                           	psect	text0,global,reloc=2,class=CODE,delta=1
    15                           	psect	text1,global,reloc=2,class=CODE,delta=1
    16                           	psect	text2,global,reloc=2,class=CODE,delta=1
    17                           	psect	text3,global,reloc=2,class=CODE,delta=1
    18                           	psect	text4,global,reloc=2,class=CODE,delta=1
    19                           	psect	text5,global,reloc=2,class=CODE,delta=1
    20                           	psect	text6,global,reloc=2,class=CODE,delta=1
    21                           	psect	text7,global,reloc=2,class=CODE,delta=1
    22                           	psect	text8,global,reloc=2,class=CODE,delta=1
    23                           	psect	text9,global,reloc=2,class=CODE,delta=1
    24                           	psect	text10,global,reloc=2,class=CODE,delta=1
    25                           	psect	intcode,global,reloc=2,class=CODE,delta=1
    26                           	psect	intcode_body,global,reloc=2,class=CODE,delta=1
    27                           	psect	text12,global,reloc=2,class=CODE,delta=1
    28                           	psect	text13,global,reloc=2,class=CODE,delta=1
    29                           	psect	text14,global,reloc=2,class=CODE,delta=1
    30                           	psect	text15,global,reloc=2,class=CODE,delta=1
    31                           	psect	text16,global,reloc=2,class=CODE,delta=1
    32                           	psect	text17,global,reloc=2,class=CODE,delta=1
    33                           	psect	text18,global,reloc=2,class=CODE,delta=1
    34                           	psect	text19,global,reloc=2,class=CODE,delta=1
    35                           	psect	text20,global,reloc=2,class=CODE,delta=1
    36                           	psect	text21,global,reloc=2,class=CODE,delta=1
    37                           	psect	text22,global,reloc=2,class=CODE,delta=1
    38                           	psect	text23,global,reloc=2,class=CODE,delta=1
    39                           	psect	text24,global,reloc=2,class=CODE,delta=1
    40                           	psect	text25,global,reloc=2,class=CODE,delta=1
    41                           	psect	text26,global,reloc=2,class=CODE,delta=1
    42                           	psect	text27,global,reloc=2,class=CODE,delta=1
    43                           	psect	text28,global,reloc=2,class=CODE,delta=1
    44                           	psect	text29,global,reloc=2,class=CODE,delta=1
    45                           	psect	text30,global,reloc=2,class=CODE,delta=1
    46                           	psect	intsave_regs,global,class=BIGRAM,space=1,delta=1,noexec
    47                           	psect	rparam,global,class=COMRAM,space=1,delta=1,noexec
    48                           	psect	temp,global,ovrld,common,class=COMRAM,space=1,delta=1,lowdata
    49                           	psect	config,global,abs,ovrld,class=CONFIG,space=4,delta=1,noexec
    50   000000                     
    51                           ; Generated 17/10/2023 GMT
    52                           ; 
    53                           ; Copyright © 2023, Microchip Technology Inc. and its subsidiaries ("Microchip")
    54                           ; All rights reserved.
    55                           ; 
    56                           ; This software is developed by Microchip Technology Inc. and its subsidiaries ("Microch
      +                          ip").
    57                           ; 
    58                           ; Redistribution and use in source and binary forms, with or without modification, are
    59                           ; permitted provided that the following conditions are met:
    60                           ; 
    61                           ;     1. Redistributions of source code must retain the above copyright notice, this lis
      +                          t of
    62                           ;        conditions and the following disclaimer.
    63                           ; 
    64                           ;     2. Redistributions in binary form must reproduce the above copyright notice, this 
      +                          list
    65                           ;        of conditions and the following disclaimer in the documentation and/or other
    66                           ;        materials provided with the distribution. Publication is not required when
    67                           ;        this file is used in an embedded application.
    68                           ; 
    69                           ;     3. Microchip's name may not be used to endorse or promote products derived from th
      +                          is
    70                           ;        software without specific prior written permission.
    71                           ; 
    72                           ; THIS SOFTWARE IS PROVIDED BY MICROCHIP "AS IS" AND ANY EXPRESS OR IMPLIED WARRANTIES,
    73                           ; INCLUDING, BUT NOT LIMITED TO, THE IMPLIED WARRANTIES OF MERCHANTABILITY AND FITNESS F
      +                          OR
    74                           ; PURPOSE ARE DISCLAIMED.  IN NO EVENT SHALL MICROCHIP BE LIABLE FOR ANY DIRECT, INDIREC
      +                          T,
    75                           ; INCIDENTAL, SPECIAL, EXEMPLARY, OR CONSEQUENTIAL DAMAGES (INCLUDING BUT NOT LIMITED TO
    76                           ; PROCUREMENT OF SUBSTITUTE GOODS OR SERVICES; LOSS OF USE, DATA OR PROFITS; OR BUSINESS
    77                           ; INTERRUPTION) HOWSOEVER CAUSED AND ON ANY THEORY OF LIABILITY, WHETHER IN CONTRACT, ST
      +                          RICT
    78                           ; LIABILITY, OR TORT (INCLUDING NEGLIGENCE OR OTHERWISE) ARISING IN ANY WAY OUT OF THE U
      +                          SE OF
    79                           ; THIS SOFTWARE, EVEN IF ADVISED OF THE POSSIBILITY OF SUCH DAMAGE.
    80                           ; 
    81                           ; 
    82                           ; Code-generator required, PIC18F4620 Definitions
    83                           ; 
    84                           ; SFR Addresses
    85   000000                     
    86                           	psect	idataCOMRAM
    87   00196C                     __pidataCOMRAM:
    88                           	callstack 0
    89                           
    90                           ;initializer for _lat_registers
    91   00196C  89                 	db	137
    92   00196D  0F                 	db	15
    93   00196E  8A                 	db	138
    94   00196F  0F                 	db	15
    95   001970  8B                 	db	139
    96   001971  0F                 	db	15
    97   001972  8C                 	db	140
    98   001973  0F                 	db	15
    99   001974  8D                 	db	141
   100   001975  0F                 	db	15
   101                           
   102                           ;initializer for _tris_registers
   103   001976  92                 	db	146
   104   001977  0F                 	db	15
   105   001978  93                 	db	147
   106   001979  0F                 	db	15
   107   00197A  94                 	db	148
   108   00197B  0F                 	db	15
   109   00197C  95                 	db	149
   110   00197D  0F                 	db	15
   111   00197E  96                 	db	150
   112   00197F  0F                 	db	15
   113                           
   114                           ;initializer for MSSP_SPI_Slave_Mode_GPIO_PIN_Configurations@F3135
   115   001980  A8                 	db	168
   116                           
   117                           ;initializer for MSSP_SPI_Slave_Mode_GPIO_PIN_Configurations@F3133
   118   001981  9A                 	db	154
   119                           
   120                           ;initializer for MSSP_SPI_Slave_Mode_GPIO_PIN_Configurations@F3131
   121   001982  A2                 	db	162
   122                           
   123                           ;initializer for MSSP_SPI_Slave_Mode_GPIO_PIN_Configurations@F3129
   124   001983  2A                 	db	42
   125                           
   126                           ;initializer for MSSP_SPI_Msster_Mode_GPIO_PIN_Configurations@F3124
   127   001984  1A                 	db	26
   128                           
   129                           ;initializer for MSSP_SPI_Msster_Mode_GPIO_PIN_Configurations@F3122
   130   001985  A2                 	db	162
   131                           
   132                           ;initializer for MSSP_SPI_Msster_Mode_GPIO_PIN_Configurations@F3120
   133   001986  2A                 	db	42
   134                           
   135                           ;initializer for _RB7_flag
   136   001987  01                 	db	1
   137                           
   138                           ;initializer for _RB6_flag
   139   001988  01                 	db	1
   140                           
   141                           ;initializer for _RB5_flag
   142   001989  01                 	db	1
   143                           
   144                           ;initializer for _RB4_flag
   145   00198A  01                 	db	1
   146                           
   147                           ;initializer for _led_1
   148   00198B  03                 	db	3
   149                           
   150                           	psect	idataBANK0
   151   001A0C                     __pidataBANK0:
   152                           	callstack 0
   153                           
   154                           ;initializer for _port_registers
   155   001A0C  80                 	db	128
   156   001A0D  0F                 	db	15
   157   001A0E  81                 	db	129
   158   001A0F  0F                 	db	15
   159   001A10  82                 	db	130
   160   001A11  0F                 	db	15
   161   001A12  83                 	db	131
   162   001A13  0F                 	db	15
   163   001A14  84                 	db	132
   164   001A15  0F                 	db	15
   165                           
   166                           ;initializer for _keypad1
   167   001A16  02                 	db	2
   168   001A17  0A                 	db	10
   169   001A18  12                 	db	18
   170   001A19  1A                 	db	26
   171   001A1A  A2                 	db	162
   172   001A1B  AA                 	db	170
   173   001A1C  B2                 	db	178
   174   001A1D  BA                 	db	186
   175                           
   176                           	psect	smallconst
   177   001000                     __psmallconst:
   178                           	callstack 0
   179   001000  00                 	db	0
   180   001001                     _btn_values:
   181                           	callstack 0
   182   001001  37                 	db	55
   183   001002  38                 	db	56
   184   001003  39                 	db	57
   185   001004  2F                 	db	47
   186   001005  34                 	db	52
   187   001006  35                 	db	53
   188   001007  36                 	db	54
   189   001008  2A                 	db	42
   190   001009  31                 	db	49
   191   00100A  32                 	db	50
   192   00100B  33                 	db	51
   193   00100C  2D                 	db	45
   194   00100D  23                 	db	35
   195   00100E  30                 	db	48
   196   00100F  3D                 	db	61
   197   001010  2B                 	db	43
   198   001011                     __end_of_btn_values:
   199                           	callstack 0
   200   000000                     _TMR3L	set	4018
   201   000000                     _TMR3H	set	4019
   202   000000                     _TMR2	set	4044
   203   000000                     _T2CONbits	set	4042
   204   000000                     _TMR1L	set	4046
   205   000000                     _TMR1H	set	4047
   206   000000                     _T1CONbits	set	4045
   207   000000                     _TMR0L	set	4054
   208   000000                     _TMR0H	set	4055
   209   000000                     _T0CONbits	set	4053
   210   000000                     _INTCON2bits	set	4081
   211   000000                     _INTCON3bits	set	4080
   212   000000                     _SSPBUF	set	4041
   213   000000                     _SSPSTATbits	set	4039
   214   000000                     _SSPADD	set	4040
   215   000000                     _SSPCON2bits	set	4037
   216   000000                     _SSPCON1bits	set	4038
   217   000000                     _SPBRGH	set	4016
   218   000000                     _SPBRG	set	4015
   219   000000                     _BAUDCONbits	set	4024
   220   000000                     _TXREG	set	4013
   221   000000                     _TXSTAbits	set	4012
   222   000000                     _RCREG	set	4014
   223   000000                     _TRISCbits	set	3988
   224   000000                     _RCSTAbits	set	4011
   225   000000                     _EECON2	set	4007
   226   000000                     _CCPR2H	set	4028
   227   000000                     _CCPR2L	set	4027
   228   000000                     _CCPR1H	set	4031
   229   000000                     _CCPR1L	set	4030
   230   000000                     _ADRESL	set	4035
   231   000000                     _ADRESH	set	4036
   232   000000                     _ADCON1bits	set	4033
   233   000000                     _INTCONbits	set	4082
   234   000000                     _TRISD	set	3989
   235   000000                     _PR2	set	4043
   236   000000                     _TRISB	set	3987
   237   000000                     _TRISE	set	3990
   238   000000                     _PORTBbits	set	3969
   239   000000                     _TRISC	set	3988
   240   000000                     _PIE1bits	set	3997
   241   000000                     _ADCON2bits	set	4032
   242   000000                     _ADCON0bits	set	4034
   243   000000                     _PORTE	set	3972
   244   000000                     _PORTD	set	3971
   245   000000                     _PORTC	set	3970
   246   000000                     _PORTB	set	3969
   247   000000                     _PORTA	set	3968
   248   000000                     _LATA	set	3977
   249   000000                     _TRISA	set	3986
   250   000000                     _PIE2bits	set	4000
   251   000000                     _CCP2CONbits	set	4026
   252   000000                     _CCP1CONbits	set	4029
   253   000000                     _PIR1bits	set	3998
   254   000000                     _EECON1bits	set	4006
   255   000000                     _EEDATA	set	4008
   256   000000                     _EEADR	set	4009
   257   000000                     _EEADRH	set	4010
   258   000000                     _T3CONbits	set	4017
   259   000000                     _PIR2bits	set	4001
   260   000000                     _LATE	set	3981
   261   000000                     _LATD	set	3980
   262   000000                     _LATC	set	3979
   263   000000                     _LATB	set	3978
   264   001011                     STR_1:
   265   001011  25                 	db	37
   266   001012  69                 	db	105	;'i'
   267   001013  00                 	db	0
   268   001014  00                 	db	0	; dummy byte at the end
   269   000000                     
   270                           ; #config settings
   271                           
   272                           	psect	cinit
   273   0018A8                     __pcinit:
   274                           	callstack 0
   275   0018A8                     start_initialization:
   276                           	callstack 0
   277   0018A8                     __initialization:
   278                           	callstack 0
   279                           
   280                           ; Initialize objects allocated to BANK0 (18 bytes)
   281                           ; load TBLPTR registers with __pidataBANK0
   282   0018A8  0E0C               	movlw	low __pidataBANK0
   283   0018AA  6EF6               	movwf	tblptrl,c
   284   0018AC  0E1A               	movlw	high __pidataBANK0
   285   0018AE  6EF7               	movwf	tblptrh,c
   286   0018B0  0E00               	movlw	low (__pidataBANK0 shr (0+16))
   287   0018B2  6EF8               	movwf	tblptru,c
   288   0018B4  EE00  F080         	lfsr	0,__pdataBANK0
   289   0018B8  EE10 F012          	lfsr	1,18
   290   0018BC                     copy_data0:
   291   0018BC  0009               	tblrd		*+
   292   0018BE  CFF5 FFEE          	movff	tablat,postinc0
   293   0018C2  50E5               	movf	postdec1,w,c
   294   0018C4  50E1               	movf	fsr1l,w,c
   295   0018C6  E1FA               	bnz	copy_data0
   296                           
   297                           ; Initialize objects allocated to COMRAM (32 bytes)
   298                           ; load TBLPTR registers with __pidataCOMRAM
   299   0018C8  0E6C               	movlw	low __pidataCOMRAM
   300   0018CA  6EF6               	movwf	tblptrl,c
   301   0018CC  0E19               	movlw	high __pidataCOMRAM
   302   0018CE  6EF7               	movwf	tblptrh,c
   303   0018D0  0E00               	movlw	low (__pidataCOMRAM shr (0+16))
   304   0018D2  6EF8               	movwf	tblptru,c
   305   0018D4  EE00  F04A         	lfsr	0,__pdataCOMRAM
   306   0018D8  EE10 F020          	lfsr	1,32
   307   0018DC                     copy_data1:
   308   0018DC  0009               	tblrd		*+
   309   0018DE  CFF5 FFEE          	movff	tablat,postinc0
   310   0018E2  50E5               	movf	postdec1,w,c
   311   0018E4  50E1               	movf	fsr1l,w,c
   312   0018E6  E1FA               	bnz	copy_data1
   313                           
   314                           ; Clear objects allocated to BANK0 (17 bytes)
   315   0018E8  EE00  F092         	lfsr	0,__pbssBANK0
   316   0018EC  0E11               	movlw	17
   317   0018EE                     clear_0:
   318   0018EE  6AEE               	clrf	postinc0,c
   319   0018F0  06E8               	decf	wreg,f,c
   320   0018F2  E1FD               	bnz	clear_0
   321                           
   322                           ; Clear objects allocated to COMRAM (73 bytes)
   323   0018F4  EE00  F001         	lfsr	0,__pbssCOMRAM
   324   0018F8  0E49               	movlw	73
   325   0018FA                     clear_1:
   326   0018FA  6AEE               	clrf	postinc0,c
   327   0018FC  06E8               	decf	wreg,f,c
   328   0018FE  E1FD               	bnz	clear_1
   329   001900                     end_of_initialization:
   330                           	callstack 0
   331   001900                     __end_of__initialization:
   332                           	callstack 0
   333   001900  907B               	bcf	int$flags,0,c	;clear compiler interrupt flag (level 1)
   334   001902  927B               	bcf	int$flags,1,c	;clear compiler interrupt flag (level 2)
   335   001904  0100               	movlb	0
   336   001906  EFFA  F00C         	goto	_main	;jump to C main() function
   337                           
   338                           	psect	bssCOMRAM
   339   000001                     __pbssCOMRAM:
   340                           	callstack 0
   341   000001                     	ds	4
   342   000005                     _timer3_preload:
   343                           	callstack 0
   344   000005                     	ds	2
   345   000007                     _TMR3_InterruptHandler:
   346                           	callstack 0
   347   000007                     	ds	2
   348   000009                     _TMR2_InterruptHandler:
   349                           	callstack 0
   350   000009                     	ds	2
   351   00000B                     _timer1_preload:
   352                           	callstack 0
   353   00000B                     	ds	2
   354   00000D                     _TMR1_InterruptHandler:
   355                           	callstack 0
   356   00000D                     	ds	2
   357   00000F                     _timer0_preload:
   358                           	callstack 0
   359   00000F                     	ds	2
   360   000011                     _TMR0_InterruptHandler:
   361                           	callstack 0
   362   000011                     	ds	2
   363   000013                     _SPI_InterruptHandler:
   364                           	callstack 0
   365   000013                     	ds	2
   366   000015                     _RB7_InterruptHandler_LOW:
   367                           	callstack 0
   368   000015                     	ds	2
   369   000017                     _RB7_InterruptHandler_HIGH:
   370                           	callstack 0
   371   000017                     	ds	2
   372   000019                     _RB6_InterruptHandler_LOW:
   373                           	callstack 0
   374   000019                     	ds	2
   375   00001B                     _RB6_InterruptHandler_HIGH:
   376                           	callstack 0
   377   00001B                     	ds	2
   378   00001D                     _RB5_InterruptHandler_LOW:
   379                           	callstack 0
   380   00001D                     	ds	2
   381   00001F                     _RB5_InterruptHandler_HIGH:
   382                           	callstack 0
   383   00001F                     	ds	2
   384   000021                     _RB4_InterruptHandler_LOW:
   385                           	callstack 0
   386   000021                     	ds	2
   387   000023                     _RB4_InterruptHandler_HIGH:
   388                           	callstack 0
   389   000023                     	ds	2
   390   000025                     _INT2_InterruptHandler:
   391                           	callstack 0
   392   000025                     	ds	2
   393   000027                     _INT1_InterruptHandler:
   394                           	callstack 0
   395   000027                     	ds	2
   396   000029                     _INT0_InterruptHandler:
   397                           	callstack 0
   398   000029                     	ds	2
   399   00002B                     _I2C_Report_Receive_Overflow_InterruptHandle:
   400                           	callstack 0
   401   00002B                     	ds	2
   402   00002D                     _I2C_DefaultInterruptHandle:
   403                           	callstack 0
   404   00002D                     	ds	2
   405   00002F                     _I2C_Report_Write_Collision_InterruptHandler:
   406                           	callstack 0
   407   00002F                     	ds	2
   408   000031                     _EUSART_OverrunErrorHandler:
   409                           	callstack 0
   410   000031                     	ds	2
   411   000033                     _EUSART_FramingErrorHandler:
   412                           	callstack 0
   413   000033                     	ds	2
   414   000035                     _EUSART_RxInterruptHandler:
   415                           	callstack 0
   416   000035                     	ds	2
   417   000037                     _EUSART_TxInterruptHandler:
   418                           	callstack 0
   419   000037                     	ds	2
   420   000039                     CCP_Compare_Mode_Set_Value@F3136:
   421                           	callstack 0
   422   000039                     	ds	2
   423   00003B                     _CCP2_InterruptHandler:
   424                           	callstack 0
   425   00003B                     	ds	2
   426   00003D                     _CCP1_InterruptHandler:
   427                           	callstack 0
   428   00003D                     	ds	2
   429   00003F                     _ADC_InterruptHandler:
   430                           	callstack 0
   431   00003F                     	ds	2
   432   000041                     _timer2_preload:
   433                           	callstack 0
   434   000041                     	ds	1
   435   000042                     relay_turn_off@F3071:
   436                           	callstack 0
   437   000042                     	ds	1
   438   000043                     relay_turn_on@F3066:
   439                           	callstack 0
   440   000043                     	ds	1
   441   000044                     relay_initialize@F3061:
   442                           	callstack 0
   443   000044                     	ds	1
   444   000045                     led_toggle@F3082:
   445                           	callstack 0
   446   000045                     	ds	1
   447   000046                     led_turn_off@F3077:
   448                           	callstack 0
   449   000046                     	ds	1
   450   000047                     led_turn_on@F3072:
   451                           	callstack 0
   452   000047                     	ds	1
   453   000048                     led_initialize@F3067:
   454                           	callstack 0
   455   000048                     	ds	1
   456   000049                     _keypad_val:
   457                           	callstack 0
   458   000049                     	ds	1
   459                           
   460                           	psect	dataCOMRAM
   461   00004A                     __pdataCOMRAM:
   462                           	callstack 0
   463   00004A                     _lat_registers:
   464                           	callstack 0
   465   00004A                     	ds	10
   466   000054                     _tris_registers:
   467                           	callstack 0
   468   000054                     	ds	10
   469   00005E                     MSSP_SPI_Slave_Mode_GPIO_PIN_Configurations@F3135:
   470                           	callstack 0
   471   00005E                     	ds	1
   472   00005F                     MSSP_SPI_Slave_Mode_GPIO_PIN_Configurations@F3133:
   473                           	callstack 0
   474   00005F                     	ds	1
   475   000060                     MSSP_SPI_Slave_Mode_GPIO_PIN_Configurations@F3131:
   476                           	callstack 0
   477   000060                     	ds	1
   478   000061                     MSSP_SPI_Slave_Mode_GPIO_PIN_Configurations@F3129:
   479                           	callstack 0
   480   000061                     	ds	1
   481   000062                     MSSP_SPI_Msster_Mode_GPIO_PIN_Configurations@F3124:
   482                           	callstack 0
   483   000062                     	ds	1
   484   000063                     MSSP_SPI_Msster_Mode_GPIO_PIN_Configurations@F3122:
   485                           	callstack 0
   486   000063                     	ds	1
   487   000064                     MSSP_SPI_Msster_Mode_GPIO_PIN_Configurations@F3120:
   488                           	callstack 0
   489   000064                     	ds	1
   490   000065                     _RB7_flag:
   491                           	callstack 0
   492   000065                     	ds	1
   493   000066                     _RB6_flag:
   494                           	callstack 0
   495   000066                     	ds	1
   496   000067                     _RB5_flag:
   497                           	callstack 0
   498   000067                     	ds	1
   499   000068                     _RB4_flag:
   500                           	callstack 0
   501   000068                     	ds	1
   502   000069                     _led_1:
   503                           	callstack 0
   504   000069                     	ds	1
   505                           
   506                           	psect	bssBANK0
   507   000092                     __pbssBANK0:
   508                           	callstack 0
   509   000092                     	ds	11
   510   00009D                     	ds	6
   511                           
   512                           	psect	dataBANK0
   513   000080                     __pdataBANK0:
   514                           	callstack 0
   515   000080                     _port_registers:
   516                           	callstack 0
   517   000080                     	ds	10
   518   00008A                     _keypad1:
   519                           	callstack 0
   520   00008A                     	ds	8
   521                           
   522                           	psect	cstackCOMRAM
   523   00006A                     __pcstackCOMRAM:
   524                           	callstack 0
   525   00006A                     RB4_ISR@RB4_Source:
   526                           	callstack 0
   527   00006A                     RB5_ISR@RB5_Source:
   528                           	callstack 0
   529   00006A                     RB6_ISR@RB6_Source:
   530                           	callstack 0
   531   00006A                     RB7_ISR@RB7_Source:
   532                           	callstack 0
   533                           
   534                           ; 1 bytes @ 0x0
   535   00006A                     	ds	1
   536   00006B                     gpio_pin_direction_initialize@config:
   537                           	callstack 0
   538   00006B                     gpio_pin_write_logic@config:
   539                           	callstack 0
   540   00006B                     gpio_pin_read_logic@config:
   541                           	callstack 0
   542                           
   543                           ; 1 bytes @ 0x1
   544   00006B                     	ds	1
   545   00006C                     ??_gpio_pin_direction_initialize:
   546   00006C                     gpio_pin_write_logic@logic_status:
   547                           	callstack 0
   548   00006C                     gpio_pin_read_logic@logic_status:
   549                           	callstack 0
   550                           
   551                           ; 1 bytes @ 0x2
   552   00006C                     	ds	1
   553   00006D                     ??_gpio_pin_write_logic:
   554   00006D                     ??_gpio_pin_read_logic:
   555                           
   556                           ; 1 bytes @ 0x3
   557   00006D                     	ds	4
   558   000071                     gpio_pin_direction_initialize@retVal:
   559                           	callstack 0
   560   000071                     gpio_pin_read_logic@retVal:
   561                           	callstack 0
   562                           
   563                           ; 1 bytes @ 0x7
   564   000071                     	ds	1
   565   000072                     gpio_pin_write_logic@retVal:
   566                           	callstack 0
   567                           
   568                           ; 1 bytes @ 0x8
   569   000072                     	ds	1
   570   000073                     keypad_get_value@pad:
   571                           	callstack 0
   572   000073                     gpio_pin_initialize@config:
   573                           	callstack 0
   574                           
   575                           ; 1 bytes @ 0x9
   576   000073                     	ds	1
   577   000074                     ??_gpio_pin_initialize:
   578   000074                     keypad_get_value@value:
   579                           	callstack 0
   580                           
   581                           ; 1 bytes @ 0xA
   582   000074                     	ds	1
   583   000075                     ??_keypad_get_value:
   584   000075                     gpio_pin_initialize@retVal:
   585                           	callstack 0
   586                           
   587                           ; 1 bytes @ 0xB
   588   000075                     	ds	1
   589   000076                     keypad_initialize@pad:
   590                           	callstack 0
   591   000076                     keypad_get_value@retVal:
   592                           	callstack 0
   593   000076                     led_initialize@led:
   594                           	callstack 0
   595                           
   596                           ; 1 bytes @ 0xC
   597   000076                     	ds	1
   598   000077                     ??_led_initialize:
   599   000077                     keypad_initialize@retVal:
   600                           	callstack 0
   601   000077                     keypad_get_value@column_logic:
   602                           	callstack 0
   603                           
   604                           ; 1 bytes @ 0xD
   605   000077                     	ds	1
   606   000078                     keypad_initialize@rows_counter:
   607                           	callstack 0
   608   000078                     keypad_get_value@counter:
   609                           	callstack 0
   610   000078                     led_initialize@retVal:
   611                           	callstack 0
   612                           
   613                           ; 1 bytes @ 0xE
   614   000078                     	ds	1
   615   000079                     keypad_initialize@columns_counter:
   616                           	callstack 0
   617   000079                     keypad_get_value@rows_counter:
   618                           	callstack 0
   619   000079                     led_initialize@pin_obj:
   620                           	callstack 0
   621                           
   622                           ; 1 bytes @ 0xF
   623   000079                     	ds	1
   624   00007A                     keypad_get_value@columns_counter:
   625                           	callstack 0
   626                           
   627                           ; 1 bytes @ 0x10
   628   00007A                     	ds	1
   629   00007B                     
   630                           ; 1 bytes @ 0x11
   631 ;;
   632 ;;Main: autosize = 0, tempsize = 0, incstack = 0, save=0
   633 ;;
   634 ;; *************** function _main *****************
   635 ;; Defined at:
   636 ;;		line 12 in file "application.c"
   637 ;; Parameters:    Size  Location     Type
   638 ;;		None
   639 ;; Auto vars:     Size  Location     Type
   640 ;;  retVal          1    0        unsigned char 
   641 ;; Return value:  Size  Location     Type
   642 ;;                  2  1789[None  ] int 
   643 ;; Registers used:
   644 ;;		wreg, fsr1l, fsr1h, fsr2l, fsr2h, status,2, status,0, tblptrl, tblptrh, tblptru, prodl, prodh, cstack
   645 ;; Tracked objects:
   646 ;;		On entry : 0/0
   647 ;;		On exit  : 0/0
   648 ;;		Unchanged: 0/0
   649 ;; Data sizes:     COMRAM   BANK0   BANK1   BANK2   BANK3   BANK4   BANK5   BANK6   BANK7   BANK8   BANK9  BANK10  BANK1
      +1  BANK12  BANK13  BANK14  BANK15
   650 ;;      Params:         0       0       0       0       0       0       0       0       0       0       0       0       
      +0       0       0       0       0
   651 ;;      Locals:         0       0       0       0       0       0       0       0       0       0       0       0       
      +0       0       0       0       0
   652 ;;      Temps:          0       0       0       0       0       0       0       0       0       0       0       0       
      +0       0       0       0       0
   653 ;;      Totals:         0       0       0       0       0       0       0       0       0       0       0       0       
      +0       0       0       0       0
   654 ;;Total ram usage:        0 bytes
   655 ;; Hardware stack levels required when called: 7
   656 ;; This function calls:
   657 ;;		_application_initialize
   658 ;;		_keypad_get_value
   659 ;; This function is called by:
   660 ;;		Startup code after reset
   661 ;; This function uses a non-reentrant model
   662 ;;
   663                           
   664                           	psect	text0
   665   0019F4                     __ptext0:
   666                           	callstack 0
   667   0019F4                     _main:
   668                           	callstack 24
   669   0019F4                     
   670                           ;application.c: 14:     application_initialize();
   671   0019F4  EC2A  F00D         	call	_application_initialize	;wreg free
   672   0019F8                     l6615:
   673   0019F8  0E8A               	movlw	low _keypad1
   674   0019FA  6E73               	movwf	keypad_get_value@pad^0,c
   675   0019FC  0E49               	movlw	low _keypad_val
   676   0019FE  6E74               	movwf	keypad_get_value@value^0,c
   677   001A00  EC23  F00B         	call	_keypad_get_value	;wreg free
   678   001A04  EFFC  F00C         	goto	l6615
   679   001A08  EF07  F000         	goto	start
   680   001A0C                     __end_of_main:
   681                           	callstack 0
   682                           
   683 ;; *************** function _keypad_get_value *****************
   684 ;; Defined at:
   685 ;;		line 49 in file "ECU_Layer/KeyPad/ecu_keypad.c"
   686 ;; Parameters:    Size  Location     Type
   687 ;;  pad             1    9[COMRAM] PTR const struct .
   688 ;;		 -> keypad1(8), 
   689 ;;  value           1   10[COMRAM] PTR unsigned char 
   690 ;;		 -> keypad_val(1), 
   691 ;; Auto vars:     Size  Location     Type
   692 ;;  columns_coun    1   16[COMRAM] unsigned char 
   693 ;;  rows_counter    1   15[COMRAM] unsigned char 
   694 ;;  counter         1   14[COMRAM] unsigned char 
   695 ;;  column_logic    1   13[COMRAM] unsigned char 
   696 ;;  retVal          1   12[COMRAM] unsigned char 
   697 ;; Return value:  Size  Location     Type
   698 ;;                  1    wreg      unsigned char 
   699 ;; Registers used:
   700 ;;		wreg, fsr1l, fsr1h, fsr2l, fsr2h, status,2, status,0, tblptrl, tblptrh, tblptru, prodl, prodh, cstack
   701 ;; Tracked objects:
   702 ;;		On entry : 0/0
   703 ;;		On exit  : 0/0
   704 ;;		Unchanged: 0/0
   705 ;; Data sizes:     COMRAM   BANK0   BANK1   BANK2   BANK3   BANK4   BANK5   BANK6   BANK7   BANK8   BANK9  BANK10  BANK1
      +1  BANK12  BANK13  BANK14  BANK15
   706 ;;      Params:         2       0       0       0       0       0       0       0       0       0       0       0       
      +0       0       0       0       0
   707 ;;      Locals:         5       0       0       0       0       0       0       0       0       0       0       0       
      +0       0       0       0       0
   708 ;;      Temps:          1       0       0       0       0       0       0       0       0       0       0       0       
      +0       0       0       0       0
   709 ;;      Totals:         8       0       0       0       0       0       0       0       0       0       0       0       
      +0       0       0       0       0
   710 ;;Total ram usage:        8 bytes
   711 ;; Hardware stack levels used: 1
   712 ;; Hardware stack levels required when called: 3
   713 ;; This function calls:
   714 ;;		_gpio_pin_read_logic
   715 ;;		_gpio_pin_write_logic
   716 ;; This function is called by:
   717 ;;		_main
   718 ;; This function uses a non-reentrant model
   719 ;;
   720                           
   721                           	psect	text1
   722   001646                     __ptext1:
   723                           	callstack 0
   724   001646                     _keypad_get_value:
   725                           	callstack 27
   726   001646                     
   727                           ;ECU_Layer/KeyPad/ecu_keypad.c: 51:     uint8 rows_counter=0, columns_counter=0;
   728   001646  0E00               	movlw	0
   729   001648  6E79               	movwf	keypad_get_value@rows_counter^0,c
   730   00164A  0E00               	movlw	0
   731   00164C  6E7A               	movwf	keypad_get_value@columns_counter^0,c
   732                           
   733                           ;ECU_Layer/KeyPad/ecu_keypad.c: 52:     uint8 counter=0;
   734   00164E  0E00               	movlw	0
   735   001650  6E78               	movwf	keypad_get_value@counter^0,c
   736                           
   737                           ;ECU_Layer/KeyPad/ecu_keypad.c: 53:     uint8 column_logic=0;
   738   001652  0E00               	movlw	0
   739   001654  6E77               	movwf	keypad_get_value@column_logic^0,c
   740                           
   741                           ;ECU_Layer/KeyPad/ecu_keypad.c: 54:     if((((void*)0) == pad) || (((void*)0) == value))
      +                          {
   742   001656  5073               	movf	keypad_get_value@pad^0,w,c
   743   001658  B4D8               	btfsc	status,2,c
   744   00165A  EF31  F00B         	goto	u4201
   745   00165E  EF33  F00B         	goto	u4200
   746   001662                     u4201:
   747   001662  EF3B  F00B         	goto	l5793
   748   001666                     u4200:
   749   001666  5074               	movf	keypad_get_value@value^0,w,c
   750   001668  A4D8               	btfss	status,2,c
   751   00166A  EF39  F00B         	goto	u4211
   752   00166E  EF3B  F00B         	goto	u4210
   753   001672                     u4211:
   754   001672  EF3F  F00B         	goto	l5795
   755   001676                     u4210:
   756   001676                     l5793:
   757                           
   758                           ;ECU_Layer/KeyPad/ecu_keypad.c: 55:         retVal = (Std_ReturnType)0x00;
   759   001676  0E00               	movlw	0
   760   001678  6E76               	movwf	keypad_get_value@retVal^0,c
   761                           
   762                           ;ECU_Layer/KeyPad/ecu_keypad.c: 56:     }
   763   00167A  EF91  F00B         	goto	l284
   764   00167E                     l5795:
   765                           
   766                           ;ECU_Layer/KeyPad/ecu_keypad.c: 58:         for(rows_counter=0 ; rows_counter < 4 ; rows
      +                          _counter++){
   767   00167E  0E00               	movlw	0
   768   001680  6E79               	movwf	keypad_get_value@rows_counter^0,c
   769   001682                     l5801:
   770                           
   771                           ;ECU_Layer/KeyPad/ecu_keypad.c: 59:             for(counter=0 ; counter < 4 ; counter++)
      +                          {
   772   001682  0E00               	movlw	0
   773   001684  6E78               	movwf	keypad_get_value@counter^0,c
   774   001686                     l5807:
   775   001686  5073               	movf	keypad_get_value@pad^0,w,c
   776   001688  2478               	addwf	keypad_get_value@counter^0,w,c
   777   00168A  6E6B               	movwf	gpio_pin_write_logic@config^0,c
   778   00168C  0E00               	movlw	0
   779   00168E  6E6C               	movwf	gpio_pin_write_logic@logic_status^0,c
   780   001690  EC99  F00A         	call	_gpio_pin_write_logic	;wreg free
   781   001694                     
   782                           ;ECU_Layer/KeyPad/ecu_keypad.c: 61:             }
   783   001694  2A78               	incf	keypad_get_value@counter^0,f,c
   784   001696  0E03               	movlw	3
   785   001698  6478               	cpfsgt	keypad_get_value@counter^0,c
   786   00169A  EF51  F00B         	goto	u4221
   787   00169E  EF53  F00B         	goto	u4220
   788   0016A2                     u4221:
   789   0016A2  EF43  F00B         	goto	l5807
   790   0016A6                     u4220:
   791   0016A6                     
   792                           ;ECU_Layer/KeyPad/ecu_keypad.c: 62:             gpio_pin_write_logic(&(pad->keypad_rows_
      +                          pins[rows_counter]) , GPIO_HIGH);
   793   0016A6  5073               	movf	keypad_get_value@pad^0,w,c
   794   0016A8  2479               	addwf	keypad_get_value@rows_counter^0,w,c
   795   0016AA  6E6B               	movwf	gpio_pin_write_logic@config^0,c
   796   0016AC  0E01               	movlw	1
   797   0016AE  6E6C               	movwf	gpio_pin_write_logic@logic_status^0,c
   798   0016B0  EC99  F00A         	call	_gpio_pin_write_logic	;wreg free
   799   0016B4                     
   800                           ;ECU_Layer/KeyPad/ecu_keypad.c: 63:             for(columns_counter=0; columns_counter <
      +                           4 ; columns_counter++){
   801   0016B4  0E00               	movlw	0
   802   0016B6  6E7A               	movwf	keypad_get_value@columns_counter^0,c
   803   0016B8                     l5821:
   804   0016B8  5073               	movf	keypad_get_value@pad^0,w,c
   805   0016BA  247A               	addwf	keypad_get_value@columns_counter^0,w,c
   806   0016BC  0F04               	addlw	4
   807   0016BE  6E6B               	movwf	gpio_pin_read_logic@config^0,c
   808   0016C0  0E77               	movlw	low keypad_get_value@column_logic
   809   0016C2  6E6C               	movwf	gpio_pin_read_logic@logic_status^0,c
   810   0016C4  EC93  F00B         	call	_gpio_pin_read_logic	;wreg free
   811   0016C8                     
   812                           ;ECU_Layer/KeyPad/ecu_keypad.c: 65:                 if(GPIO_HIGH == column_logic){
   813   0016C8  0477               	decf	keypad_get_value@column_logic^0,w,c
   814   0016CA  A4D8               	btfss	status,2,c
   815   0016CC  EF6A  F00B         	goto	u4231
   816   0016D0  EF6C  F00B         	goto	u4230
   817   0016D4                     u4231:
   818   0016D4  EF7D  F00B         	goto	l5827
   819   0016D8                     u4230:
   820   0016D8                     
   821                           ;ECU_Layer/KeyPad/ecu_keypad.c: 66:                     *value = btn_values[rows_counter
      +                          ][columns_counter];
   822   0016D8  5079               	movf	keypad_get_value@rows_counter^0,w,c
   823   0016DA  0D04               	mullw	4
   824   0016DC  50F3               	movf	243,w,c
   825   0016DE  0F01               	addlw	low _btn_values
   826   0016E0  247A               	addwf	keypad_get_value@columns_counter^0,w,c
   827   0016E2  6E75               	movwf	??_keypad_get_value^0,c
   828   0016E4  C075  FFF6         	movff	??_keypad_get_value,tblptrl
   829   0016E8                     	if	1	;There is more than 1 active tblptr byte
   830   0016E8  0E10               	movlw	high __smallconst
   831   0016EA  6EF7               	movwf	tblptrh,c
   832   0016EC                     	endif
   833   0016EC                     	if	1	;Program memory is < 0x10000, tblptru is always zero
   834   0016EC  6AF8               	clrf	tblptru,c
   835   0016EE                     	endif
   836   0016EE                     	if	0	;tblptru may be non-zero
   837   0016EE                     	endif
   838   0016EE  5074               	movf	keypad_get_value@value^0,w,c
   839   0016F0  6ED9               	movwf	fsr2l,c
   840   0016F2  6ADA               	clrf	fsr2h,c
   841   0016F4  0008               	tblrd		*
   842   0016F6  CFF5 FFDF          	movff	tablat,indf2
   843   0016FA                     l5827:
   844                           
   845                           ;ECU_Layer/KeyPad/ecu_keypad.c: 68:             }
   846   0016FA  2A7A               	incf	keypad_get_value@columns_counter^0,f,c
   847   0016FC  0E03               	movlw	3
   848   0016FE  647A               	cpfsgt	keypad_get_value@columns_counter^0,c
   849   001700  EF84  F00B         	goto	u4241
   850   001704  EF86  F00B         	goto	u4240
   851   001708                     u4241:
   852   001708  EF5C  F00B         	goto	l5821
   853   00170C                     u4240:
   854   00170C                     
   855                           ;ECU_Layer/KeyPad/ecu_keypad.c: 69:         }
   856   00170C  2A79               	incf	keypad_get_value@rows_counter^0,f,c
   857   00170E  0E03               	movlw	3
   858   001710  6479               	cpfsgt	keypad_get_value@rows_counter^0,c
   859   001712  EF8D  F00B         	goto	u4251
   860   001716  EF8F  F00B         	goto	u4250
   861   00171A                     u4251:
   862   00171A  EF41  F00B         	goto	l5801
   863   00171E                     u4250:
   864   00171E                     
   865                           ;ECU_Layer/KeyPad/ecu_keypad.c: 70:         retVal = (Std_ReturnType)0x01;
   866   00171E  0E01               	movlw	1
   867   001720  6E76               	movwf	keypad_get_value@retVal^0,c
   868   001722                     l284:
   869                           
   870                           ;ECU_Layer/KeyPad/ecu_keypad.c: 72:     return retVal;
   871   001722  5076               	movf	keypad_get_value@retVal^0,w,c
   872   001724  0012               	return		;funcret
   873   001726                     __end_of_keypad_get_value:
   874                           	callstack 0
   875                           
   876 ;; *************** function _gpio_pin_read_logic *****************
   877 ;; Defined at:
   878 ;;		line 105 in file "MCAL_Layer/GPIO/hal_gpio.c"
   879 ;; Parameters:    Size  Location     Type
   880 ;;  config          1    1[COMRAM] PTR const struct .
   881 ;;		 -> keypad1$keypad_columns_pins(4), keypad1(8), 
   882 ;;  logic_status    1    2[COMRAM] PTR enum E2986
   883 ;;		 -> Ultrasonic_Calculate_Distance@EchoPinLogic(1), keypad_get_value@column_logic(1), button_read_state@logic_status(
      +1), 
   884 ;; Auto vars:     Size  Location     Type
   885 ;;  retVal          1    7[COMRAM] unsigned char 
   886 ;; Return value:  Size  Location     Type
   887 ;;                  1    wreg      unsigned char 
   888 ;; Registers used:
   889 ;;		wreg, fsr1l, fsr1h, fsr2l, fsr2h, status,2, status,0, prodl, prodh
   890 ;; Tracked objects:
   891 ;;		On entry : 0/0
   892 ;;		On exit  : 0/0
   893 ;;		Unchanged: 0/0
   894 ;; Data sizes:     COMRAM   BANK0   BANK1   BANK2   BANK3   BANK4   BANK5   BANK6   BANK7   BANK8   BANK9  BANK10  BANK1
      +1  BANK12  BANK13  BANK14  BANK15
   895 ;;      Params:         2       0       0       0       0       0       0       0       0       0       0       0       
      +0       0       0       0       0
   896 ;;      Locals:         1       0       0       0       0       0       0       0       0       0       0       0       
      +0       0       0       0       0
   897 ;;      Temps:          4       0       0       0       0       0       0       0       0       0       0       0       
      +0       0       0       0       0
   898 ;;      Totals:         7       0       0       0       0       0       0       0       0       0       0       0       
      +0       0       0       0       0
   899 ;;Total ram usage:        7 bytes
   900 ;; Hardware stack levels used: 1
   901 ;; Hardware stack levels required when called: 2
   902 ;; This function calls:
   903 ;;		Nothing
   904 ;; This function is called by:
   905 ;;		_keypad_get_value
   906 ;;		_button_read_state
   907 ;;		_Ultrasonic_Calculate_Distance
   908 ;; This function uses a non-reentrant model
   909 ;;
   910                           
   911                           	psect	text2
   912   001726                     __ptext2:
   913                           	callstack 0
   914   001726                     _gpio_pin_read_logic:
   915                           	callstack 27
   916   001726                     
   917                           ;MCAL_Layer/GPIO/hal_gpio.c: 107:     if((((void*)0) == config) || (((void*)0) == logic_
      +                          status) || (config->pin > 8 -1))
   918   001726  506B               	movf	gpio_pin_read_logic@config^0,w,c
   919   001728  B4D8               	btfsc	status,2,c
   920   00172A  EF99  F00B         	goto	u4031
   921   00172E  EF9B  F00B         	goto	u4030
   922   001732                     u4031:
   923   001732  EFB3  F00B         	goto	l5613
   924   001736                     u4030:
   925   001736  506C               	movf	gpio_pin_read_logic@logic_status^0,w,c
   926   001738  B4D8               	btfsc	status,2,c
   927   00173A  EFA1  F00B         	goto	u4041
   928   00173E  EFA3  F00B         	goto	u4040
   929   001742                     u4041:
   930   001742  EFB3  F00B         	goto	l5613
   931   001746                     u4040:
   932   001746  506B               	movf	gpio_pin_read_logic@config^0,w,c
   933   001748  6ED9               	movwf	fsr2l,c
   934   00174A  6ADA               	clrf	fsr2h,c
   935   00174C  30DF               	rrcf	223,w,c
   936   00174E  32E8               	rrcf	wreg,f,c
   937   001750  32E8               	rrcf	wreg,f,c
   938   001752  0B07               	andlw	7
   939   001754  6E6D               	movwf	??_gpio_pin_read_logic^0,c
   940   001756  0E07               	movlw	7
   941   001758  646D               	cpfsgt	??_gpio_pin_read_logic^0,c
   942   00175A  EFB1  F00B         	goto	u4051
   943   00175E  EFB3  F00B         	goto	u4050
   944   001762                     u4051:
   945   001762  EFB7  F00B         	goto	l5615
   946   001766                     u4050:
   947   001766                     l5613:
   948                           
   949                           ;MCAL_Layer/GPIO/hal_gpio.c: 108:     {;MCAL_Layer/GPIO/hal_gpio.c: 109:         retVal 
      +                          = (Std_ReturnType)0x00;
   950   001766  0E00               	movlw	0
   951   001768  6E71               	movwf	gpio_pin_read_logic@retVal^0,c
   952                           
   953                           ;MCAL_Layer/GPIO/hal_gpio.c: 110:     }else{
   954   00176A  EFE3  F00B         	goto	l5619
   955   00176E                     l5615:
   956                           
   957                           ;MCAL_Layer/GPIO/hal_gpio.c: 111:         *logic_status = ((*port_registers[config->port
      +                          ] >> config->pin) & (uint8)1);
   958   00176E  506C               	movf	gpio_pin_read_logic@logic_status^0,w,c
   959   001770  6ED9               	movwf	fsr2l,c
   960   001772  6ADA               	clrf	fsr2h,c
   961   001774  506B               	movf	gpio_pin_read_logic@config^0,w,c
   962   001776  6EE1               	movwf	fsr1l,c
   963   001778  6AE2               	clrf	fsr1h,c
   964   00177A  30E7               	rrcf	231,w,c
   965   00177C  32E8               	rrcf	wreg,f,c
   966   00177E  32E8               	rrcf	wreg,f,c
   967   001780  0B07               	andlw	7
   968   001782  6E6D               	movwf	??_gpio_pin_read_logic^0,c
   969   001784  506B               	movf	gpio_pin_read_logic@config^0,w,c
   970   001786  6EE1               	movwf	fsr1l,c
   971   001788  6AE2               	clrf	fsr1h,c
   972   00178A  50E7               	movf	231,w,c
   973   00178C  0B07               	andlw	7
   974   00178E  0D02               	mullw	2
   975   001790  50F3               	movf	243,w,c
   976   001792  0F80               	addlw	low _port_registers
   977   001794  6EE1               	movwf	fsr1l,c
   978   001796  6AE2               	clrf	fsr1h,c
   979   001798  CFE6 F06E          	movff	postinc1,??_gpio_pin_read_logic+1
   980   00179C  CFE5 F06F          	movff	postdec1,??_gpio_pin_read_logic+2
   981   0017A0  C06E  FFE1         	movff	??_gpio_pin_read_logic+1,fsr1l
   982   0017A4  C06F  FFE2         	movff	??_gpio_pin_read_logic+2,fsr1h
   983   0017A8  50E7               	movf	indf1,w,c
   984   0017AA  6E70               	movwf	(??_gpio_pin_read_logic+3)^0,c
   985   0017AC  2A6D               	incf	??_gpio_pin_read_logic^0,f,c
   986   0017AE  EFDB  F00B         	goto	u4064
   987   0017B2                     u4065:
   988   0017B2  90D8               	bcf	status,0,c
   989   0017B4  3270               	rrcf	(??_gpio_pin_read_logic+3)^0,f,c
   990   0017B6                     u4064:
   991   0017B6  2E6D               	decfsz	??_gpio_pin_read_logic^0,f,c
   992   0017B8  EFD9  F00B         	goto	u4065
   993   0017BC  5070               	movf	(??_gpio_pin_read_logic+3)^0,w,c
   994   0017BE  0B01               	andlw	1
   995   0017C0  6EDF               	movwf	indf2,c
   996   0017C2                     
   997                           ;MCAL_Layer/GPIO/hal_gpio.c: 112:         retVal = (Std_ReturnType)0x01;
   998   0017C2  0E01               	movlw	1
   999   0017C4  6E71               	movwf	gpio_pin_read_logic@retVal^0,c
  1000   0017C6                     l5619:
  1001                           
  1002                           ;MCAL_Layer/GPIO/hal_gpio.c: 114:     return retVal;
  1003   0017C6  5071               	movf	gpio_pin_read_logic@retVal^0,w,c
  1004   0017C8  0012               	return		;funcret
  1005   0017CA                     __end_of_gpio_pin_read_logic:
  1006                           	callstack 0
  1007                           
  1008 ;; *************** function _application_initialize *****************
  1009 ;; Defined at:
  1010 ;;		line 21 in file "application.c"
  1011 ;; Parameters:    Size  Location     Type
  1012 ;;		None
  1013 ;; Auto vars:     Size  Location     Type
  1014 ;;  retVal          1    0        unsigned char 
  1015 ;; Return value:  Size  Location     Type
  1016 ;;                  1    wreg      void 
  1017 ;; Registers used:
  1018 ;;		wreg, fsr2l, fsr2h, status,2, status,0, prodl, prodh, cstack
  1019 ;; Tracked objects:
  1020 ;;		On entry : 0/0
  1021 ;;		On exit  : 0/0
  1022 ;;		Unchanged: 0/0
  1023 ;; Data sizes:     COMRAM   BANK0   BANK1   BANK2   BANK3   BANK4   BANK5   BANK6   BANK7   BANK8   BANK9  BANK10  BANK1
      +1  BANK12  BANK13  BANK14  BANK15
  1024 ;;      Params:         0       0       0       0       0       0       0       0       0       0       0       0       
      +0       0       0       0       0
  1025 ;;      Locals:         0       0       0       0       0       0       0       0       0       0       0       0       
      +0       0       0       0       0
  1026 ;;      Temps:          0       0       0       0       0       0       0       0       0       0       0       0       
      +0       0       0       0       0
  1027 ;;      Totals:         0       0       0       0       0       0       0       0       0       0       0       0       
      +0       0       0       0       0
  1028 ;;Total ram usage:        0 bytes
  1029 ;; Hardware stack levels used: 1
  1030 ;; Hardware stack levels required when called: 6
  1031 ;; This function calls:
  1032 ;;		_ecu_layer_initialize
  1033 ;;		_mcal_layer_initialize
  1034 ;; This function is called by:
  1035 ;;		_main
  1036 ;; This function uses a non-reentrant model
  1037 ;;
  1038                           
  1039                           	psect	text3
  1040   001A54                     __ptext3:
  1041                           	callstack 0
  1042   001A54                     _application_initialize:
  1043                           	callstack 24
  1044   001A54                     
  1045                           ;application.c: 23:     ecu_layer_initialize();
  1046   001A54  EC0F  F00D         	call	_ecu_layer_initialize	;wreg free
  1047   001A58                     
  1048                           ;application.c: 24:     mcal_layer_initialize();
  1049   001A58  EC47  F00D         	call	_mcal_layer_initialize	;wreg free
  1050   001A5C  0012               	return		;funcret
  1051   001A5E                     __end_of_application_initialize:
  1052                           	callstack 0
  1053                           
  1054 ;; *************** function _mcal_layer_initialize *****************
  1055 ;; Defined at:
  1056 ;;		line 211 in file "MCAL_Layer/mcal_layer_initialize.c"
  1057 ;; Parameters:    Size  Location     Type
  1058 ;;		None
  1059 ;; Auto vars:     Size  Location     Type
  1060 ;;  retVal          1    0        unsigned char 
  1061 ;; Return value:  Size  Location     Type
  1062 ;;                  1    wreg      void 
  1063 ;; Registers used:
  1064 ;;		wreg, status,2
  1065 ;; Tracked objects:
  1066 ;;		On entry : 0/0
  1067 ;;		On exit  : 0/0
  1068 ;;		Unchanged: 0/0
  1069 ;; Data sizes:     COMRAM   BANK0   BANK1   BANK2   BANK3   BANK4   BANK5   BANK6   BANK7   BANK8   BANK9  BANK10  BANK1
      +1  BANK12  BANK13  BANK14  BANK15
  1070 ;;      Params:         0       0       0       0       0       0       0       0       0       0       0       0       
      +0       0       0       0       0
  1071 ;;      Locals:         0       0       0       0       0       0       0       0       0       0       0       0       
      +0       0       0       0       0
  1072 ;;      Temps:          0       0       0       0       0       0       0       0       0       0       0       0       
      +0       0       0       0       0
  1073 ;;      Totals:         0       0       0       0       0       0       0       0       0       0       0       0       
      +0       0       0       0       0
  1074 ;;Total ram usage:        0 bytes
  1075 ;; Hardware stack levels used: 1
  1076 ;; Hardware stack levels required when called: 2
  1077 ;; This function calls:
  1078 ;;		Nothing
  1079 ;; This function is called by:
  1080 ;;		_application_initialize
  1081 ;; This function uses a non-reentrant model
  1082 ;;
  1083                           
  1084                           	psect	text4
  1085   001A8E                     __ptext4:
  1086                           	callstack 0
  1087   001A8E                     _mcal_layer_initialize:
  1088                           	callstack 27
  1089   001A8E  0012               	return		;funcret
  1090   001A90                     __end_of_mcal_layer_initialize:
  1091                           	callstack 0
  1092                           
  1093 ;; *************** function _ecu_layer_initialize *****************
  1094 ;; Defined at:
  1095 ;;		line 481 in file "ECU_Layer/ecu_layer_initialize.c"
  1096 ;; Parameters:    Size  Location     Type
  1097 ;;		None
  1098 ;; Auto vars:     Size  Location     Type
  1099 ;;  retVal          1    0        unsigned char 
  1100 ;; Return value:  Size  Location     Type
  1101 ;;                  1    wreg      void 
  1102 ;; Registers used:
  1103 ;;		wreg, fsr2l, fsr2h, status,2, status,0, prodl, prodh, cstack
  1104 ;; Tracked objects:
  1105 ;;		On entry : 0/0
  1106 ;;		On exit  : 0/0
  1107 ;;		Unchanged: 0/0
  1108 ;; Data sizes:     COMRAM   BANK0   BANK1   BANK2   BANK3   BANK4   BANK5   BANK6   BANK7   BANK8   BANK9  BANK10  BANK1
      +1  BANK12  BANK13  BANK14  BANK15
  1109 ;;      Params:         0       0       0       0       0       0       0       0       0       0       0       0       
      +0       0       0       0       0
  1110 ;;      Locals:         0       0       0       0       0       0       0       0       0       0       0       0       
      +0       0       0       0       0
  1111 ;;      Temps:          0       0       0       0       0       0       0       0       0       0       0       0       
      +0       0       0       0       0
  1112 ;;      Totals:         0       0       0       0       0       0       0       0       0       0       0       0       
      +0       0       0       0       0
  1113 ;;Total ram usage:        0 bytes
  1114 ;; Hardware stack levels used: 1
  1115 ;; Hardware stack levels required when called: 5
  1116 ;; This function calls:
  1117 ;;		_keypad_initialize
  1118 ;;		_led_initialize
  1119 ;; This function is called by:
  1120 ;;		_application_initialize
  1121 ;; This function uses a non-reentrant model
  1122 ;;
  1123                           
  1124                           	psect	text5
  1125   001A1E                     __ptext5:
  1126                           	callstack 0
  1127   001A1E                     _ecu_layer_initialize:
  1128                           	callstack 24
  1129   001A1E  0E69               	movlw	low _led_1
  1130   001A20  6E76               	movwf	led_initialize@led^0,c
  1131   001A22  ECE5  F00B         	call	_led_initialize	;wreg free
  1132   001A26  0E8A               	movlw	low _keypad1
  1133   001A28  6E76               	movwf	keypad_initialize@pad^0,c
  1134   001A2A  EC1F  F00C         	call	_keypad_initialize	;wreg free
  1135   001A2E  0012               	return		;funcret
  1136   001A30                     __end_of_ecu_layer_initialize:
  1137                           	callstack 0
  1138                           
  1139 ;; *************** function _led_initialize *****************
  1140 ;; Defined at:
  1141 ;;		line 17 in file "ECU_Layer/LED/ecu_led.c"
  1142 ;; Parameters:    Size  Location     Type
  1143 ;;  led             1   12[COMRAM] PTR const struct .
  1144 ;;		 -> led_1(1), 
  1145 ;; Auto vars:     Size  Location     Type
  1146 ;;  pin_obj         1   15[COMRAM] struct .
  1147 ;;  retVal          1   14[COMRAM] unsigned char 
  1148 ;; Return value:  Size  Location     Type
  1149 ;;                  1    wreg      unsigned char 
  1150 ;; Registers used:
  1151 ;;		wreg, fsr2l, fsr2h, status,2, status,0, prodl, prodh, cstack
  1152 ;; Tracked objects:
  1153 ;;		On entry : 0/0
  1154 ;;		On exit  : 0/0
  1155 ;;		Unchanged: 0/0
  1156 ;; Data sizes:     COMRAM   BANK0   BANK1   BANK2   BANK3   BANK4   BANK5   BANK6   BANK7   BANK8   BANK9  BANK10  BANK1
      +1  BANK12  BANK13  BANK14  BANK15
  1157 ;;      Params:         1       0       0       0       0       0       0       0       0       0       0       0       
      +0       0       0       0       0
  1158 ;;      Locals:         2       0       0       0       0       0       0       0       0       0       0       0       
      +0       0       0       0       0
  1159 ;;      Temps:          1       0       0       0       0       0       0       0       0       0       0       0       
      +0       0       0       0       0
  1160 ;;      Totals:         4       0       0       0       0       0       0       0       0       0       0       0       
      +0       0       0       0       0
  1161 ;;Total ram usage:        4 bytes
  1162 ;; Hardware stack levels used: 1
  1163 ;; Hardware stack levels required when called: 4
  1164 ;; This function calls:
  1165 ;;		_gpio_pin_initialize
  1166 ;; This function is called by:
  1167 ;;		_ecu_layer_initialize
  1168 ;; This function uses a non-reentrant model
  1169 ;;
  1170                           
  1171                           	psect	text6
  1172   0017CA                     __ptext6:
  1173                           	callstack 0
  1174   0017CA                     _led_initialize:
  1175                           	callstack 24
  1176   0017CA                     
  1177                           ;ECU_Layer/LED/ecu_led.c: 19:     if(((void*)0) == led){
  1178   0017CA  5076               	movf	led_initialize@led^0,w,c
  1179   0017CC  A4D8               	btfss	status,2,c
  1180   0017CE  EFEB  F00B         	goto	u4011
  1181   0017D2  EFED  F00B         	goto	u4010
  1182   0017D6                     u4011:
  1183   0017D6  EFF1  F00B         	goto	l301
  1184   0017DA                     u4010:
  1185   0017DA                     
  1186                           ;ECU_Layer/LED/ecu_led.c: 20:         retVal = (Std_ReturnType)0x00;
  1187   0017DA  0E00               	movlw	0
  1188   0017DC  6E78               	movwf	led_initialize@retVal^0,c
  1189                           
  1190                           ;ECU_Layer/LED/ecu_led.c: 21:     }else{
  1191   0017DE  EF1D  F00C         	goto	l5603
  1192   0017E2                     l301:
  1193                           
  1194                           ;ECU_Layer/LED/ecu_led.c: 22:         pin_config_t pin_obj = {.port = led->port,
  1195   0017E2  C048  F079         	movff	led_initialize@F3067,led_initialize@pin_obj
  1196   0017E6  5076               	movf	led_initialize@led^0,w,c
  1197   0017E8  6ED9               	movwf	fsr2l,c
  1198   0017EA  6ADA               	clrf	fsr2h,c
  1199   0017EC  50DF               	movf	223,w,c
  1200   0017EE  0B07               	andlw	7
  1201   0017F0  6E77               	movwf	??_led_initialize^0,c
  1202   0017F2  5079               	movf	led_initialize@pin_obj^0,w,c
  1203   0017F4  1877               	xorwf	??_led_initialize^0,w,c
  1204   0017F6  0BF8               	andlw	-8
  1205   0017F8  1877               	xorwf	??_led_initialize^0,w,c
  1206   0017FA  6E79               	movwf	led_initialize@pin_obj^0,c
  1207   0017FC  5076               	movf	led_initialize@led^0,w,c
  1208   0017FE  6ED9               	movwf	fsr2l,c
  1209   001800  6ADA               	clrf	fsr2h,c
  1210   001802  30DF               	rrcf	223,w,c
  1211   001804  32E8               	rrcf	wreg,f,c
  1212   001806  32E8               	rrcf	wreg,f,c
  1213   001808  0B07               	andlw	7
  1214   00180A  6E77               	movwf	??_led_initialize^0,c
  1215   00180C  4677               	rlncf	??_led_initialize^0,f,c
  1216   00180E  4677               	rlncf	??_led_initialize^0,f,c
  1217   001810  4677               	rlncf	??_led_initialize^0,f,c
  1218   001812  5079               	movf	led_initialize@pin_obj^0,w,c
  1219   001814  1877               	xorwf	??_led_initialize^0,w,c
  1220   001816  0BC7               	andlw	-57
  1221   001818  1877               	xorwf	??_led_initialize^0,w,c
  1222   00181A  6E79               	movwf	led_initialize@pin_obj^0,c
  1223   00181C  5076               	movf	led_initialize@led^0,w,c
  1224   00181E  6ED9               	movwf	fsr2l,c
  1225   001820  6ADA               	clrf	fsr2h,c
  1226   001822  ACDF               	btfss	indf2,6,c
  1227   001824  D002               	bra	u4025
  1228   001826  8C79               	bsf	led_initialize@pin_obj^0,6,c
  1229   001828  D001               	bra	u4027
  1230   00182A                     u4025:
  1231   00182A  9C79               	bcf	led_initialize@pin_obj^0,6,c
  1232   00182C                     u4027:
  1233   00182C  9E79               	bcf	led_initialize@pin_obj^0,7,c
  1234   00182E                     
  1235                           ;ECU_Layer/LED/ecu_led.c: 27:         gpio_pin_initialize(&pin_obj);
  1236   00182E  0E79               	movlw	low led_initialize@pin_obj
  1237   001830  6E73               	movwf	gpio_pin_initialize@config^0,c
  1238   001832  EC85  F00C         	call	_gpio_pin_initialize	;wreg free
  1239   001836                     
  1240                           ;ECU_Layer/LED/ecu_led.c: 28:         retVal = (Std_ReturnType)0x01;
  1241   001836  0E01               	movlw	1
  1242   001838  6E78               	movwf	led_initialize@retVal^0,c
  1243   00183A                     l5603:
  1244                           
  1245                           ;ECU_Layer/LED/ecu_led.c: 30:     return retVal;
  1246   00183A  5078               	movf	led_initialize@retVal^0,w,c
  1247   00183C  0012               	return		;funcret
  1248   00183E                     __end_of_led_initialize:
  1249                           	callstack 0
  1250                           
  1251 ;; *************** function _keypad_initialize *****************
  1252 ;; Defined at:
  1253 ;;		line 24 in file "ECU_Layer/KeyPad/ecu_keypad.c"
  1254 ;; Parameters:    Size  Location     Type
  1255 ;;  pad             1   12[COMRAM] PTR const struct .
  1256 ;;		 -> keypad1(8), 
  1257 ;; Auto vars:     Size  Location     Type
  1258 ;;  columns_coun    1   15[COMRAM] unsigned char 
  1259 ;;  rows_counter    1   14[COMRAM] unsigned char 
  1260 ;;  retVal          1   13[COMRAM] unsigned char 
  1261 ;; Return value:  Size  Location     Type
  1262 ;;                  1    wreg      unsigned char 
  1263 ;; Registers used:
  1264 ;;		wreg, fsr2l, fsr2h, status,2, status,0, prodl, prodh, cstack
  1265 ;; Tracked objects:
  1266 ;;		On entry : 0/0
  1267 ;;		On exit  : 0/0
  1268 ;;		Unchanged: 0/0
  1269 ;; Data sizes:     COMRAM   BANK0   BANK1   BANK2   BANK3   BANK4   BANK5   BANK6   BANK7   BANK8   BANK9  BANK10  BANK1
      +1  BANK12  BANK13  BANK14  BANK15
  1270 ;;      Params:         1       0       0       0       0       0       0       0       0       0       0       0       
      +0       0       0       0       0
  1271 ;;      Locals:         3       0       0       0       0       0       0       0       0       0       0       0       
      +0       0       0       0       0
  1272 ;;      Temps:          0       0       0       0       0       0       0       0       0       0       0       0       
      +0       0       0       0       0
  1273 ;;      Totals:         4       0       0       0       0       0       0       0       0       0       0       0       
      +0       0       0       0       0
  1274 ;;Total ram usage:        4 bytes
  1275 ;; Hardware stack levels used: 1
  1276 ;; Hardware stack levels required when called: 4
  1277 ;; This function calls:
  1278 ;;		_gpio_pin_direction_initialize
  1279 ;;		_gpio_pin_initialize
  1280 ;; This function is called by:
  1281 ;;		_ecu_layer_initialize
  1282 ;; This function uses a non-reentrant model
  1283 ;;
  1284                           
  1285                           	psect	text7
  1286   00183E                     __ptext7:
  1287                           	callstack 0
  1288   00183E                     _keypad_initialize:
  1289                           	callstack 24
  1290   00183E                     
  1291                           ;ECU_Layer/KeyPad/ecu_keypad.c: 26:     uint8 rows_counter=0 , columns_counter=0;
  1292   00183E  0E00               	movlw	0
  1293   001840  6E78               	movwf	keypad_initialize@rows_counter^0,c
  1294   001842  0E00               	movlw	0
  1295   001844  6E79               	movwf	keypad_initialize@columns_counter^0,c
  1296                           
  1297                           ;ECU_Layer/KeyPad/ecu_keypad.c: 27:     if(((void*)0) == pad){
  1298   001846  5076               	movf	keypad_initialize@pad^0,w,c
  1299   001848  A4D8               	btfss	status,2,c
  1300   00184A  EF29  F00C         	goto	u3981
  1301   00184E  EF2B  F00C         	goto	u3980
  1302   001852                     u3981:
  1303   001852  EF2F  F00C         	goto	l5561
  1304   001856                     u3980:
  1305   001856                     
  1306                           ;ECU_Layer/KeyPad/ecu_keypad.c: 28:         retVal = (Std_ReturnType)0x00;
  1307   001856  0E00               	movlw	0
  1308   001858  6E77               	movwf	keypad_initialize@retVal^0,c
  1309                           
  1310                           ;ECU_Layer/KeyPad/ecu_keypad.c: 29:     }
  1311   00185A  EF52  F00C         	goto	l273
  1312   00185E                     l5561:
  1313                           
  1314                           ;ECU_Layer/KeyPad/ecu_keypad.c: 31:         for(rows_counter=0 ; rows_counter<4 ; rows_c
      +                          ounter++){
  1315   00185E  0E00               	movlw	0
  1316   001860  6E78               	movwf	keypad_initialize@rows_counter^0,c
  1317   001862                     l5567:
  1318   001862  5076               	movf	keypad_initialize@pad^0,w,c
  1319   001864  2478               	addwf	keypad_initialize@rows_counter^0,w,c
  1320   001866  6E73               	movwf	gpio_pin_initialize@config^0,c
  1321   001868  EC85  F00C         	call	_gpio_pin_initialize	;wreg free
  1322   00186C                     
  1323                           ;ECU_Layer/KeyPad/ecu_keypad.c: 33:         }
  1324   00186C  2A78               	incf	keypad_initialize@rows_counter^0,f,c
  1325   00186E  0E03               	movlw	3
  1326   001870  6478               	cpfsgt	keypad_initialize@rows_counter^0,c
  1327   001872  EF3D  F00C         	goto	u3991
  1328   001876  EF3F  F00C         	goto	u3990
  1329   00187A                     u3991:
  1330   00187A  EF31  F00C         	goto	l5567
  1331   00187E                     u3990:
  1332   00187E                     
  1333                           ;ECU_Layer/KeyPad/ecu_keypad.c: 34:         for(columns_counter=0 ; columns_counter<4 ; 
      +                          columns_counter++){
  1334   00187E  0E00               	movlw	0
  1335   001880  6E79               	movwf	keypad_initialize@columns_counter^0,c
  1336   001882                     l5579:
  1337   001882  5076               	movf	keypad_initialize@pad^0,w,c
  1338   001884  2479               	addwf	keypad_initialize@columns_counter^0,w,c
  1339   001886  0F04               	addlw	4
  1340   001888  6E6B               	movwf	gpio_pin_direction_initialize@config^0,c
  1341   00188A  EC0E  F00A         	call	_gpio_pin_direction_initialize	;wreg free
  1342   00188E                     
  1343                           ;ECU_Layer/KeyPad/ecu_keypad.c: 36:         }
  1344   00188E  2A79               	incf	keypad_initialize@columns_counter^0,f,c
  1345   001890  0E03               	movlw	3
  1346   001892  6479               	cpfsgt	keypad_initialize@columns_counter^0,c
  1347   001894  EF4E  F00C         	goto	u4001
  1348   001898  EF50  F00C         	goto	u4000
  1349   00189C                     u4001:
  1350   00189C  EF41  F00C         	goto	l5579
  1351   0018A0                     u4000:
  1352   0018A0                     
  1353                           ;ECU_Layer/KeyPad/ecu_keypad.c: 37:         retVal = (Std_ReturnType)0x01;
  1354   0018A0  0E01               	movlw	1
  1355   0018A2  6E77               	movwf	keypad_initialize@retVal^0,c
  1356   0018A4                     l273:
  1357                           
  1358                           ;ECU_Layer/KeyPad/ecu_keypad.c: 39:     return retVal;
  1359   0018A4  5077               	movf	keypad_initialize@retVal^0,w,c
  1360   0018A6  0012               	return		;funcret
  1361   0018A8                     __end_of_keypad_initialize:
  1362                           	callstack 0
  1363                           
  1364 ;; *************** function _gpio_pin_initialize *****************
  1365 ;; Defined at:
  1366 ;;		line 145 in file "MCAL_Layer/GPIO/hal_gpio.c"
  1367 ;; Parameters:    Size  Location     Type
  1368 ;;  config          1    9[COMRAM] PTR const struct .
  1369 ;;		 -> keypad1$keypad_rows_pins(4), keypad1(8), relay_initialize@relay_obj(1), led_initialize@pin_obj(1), 
  1370 ;; Auto vars:     Size  Location     Type
  1371 ;;  retVal          1   11[COMRAM] unsigned char 
  1372 ;; Return value:  Size  Location     Type
  1373 ;;                  1    wreg      unsigned char 
  1374 ;; Registers used:
  1375 ;;		wreg, fsr2l, fsr2h, status,2, status,0, prodl, prodh, cstack
  1376 ;; Tracked objects:
  1377 ;;		On entry : 0/0
  1378 ;;		On exit  : 0/0
  1379 ;;		Unchanged: 0/0
  1380 ;; Data sizes:     COMRAM   BANK0   BANK1   BANK2   BANK3   BANK4   BANK5   BANK6   BANK7   BANK8   BANK9  BANK10  BANK1
      +1  BANK12  BANK13  BANK14  BANK15
  1381 ;;      Params:         1       0       0       0       0       0       0       0       0       0       0       0       
      +0       0       0       0       0
  1382 ;;      Locals:         1       0       0       0       0       0       0       0       0       0       0       0       
      +0       0       0       0       0
  1383 ;;      Temps:          1       0       0       0       0       0       0       0       0       0       0       0       
      +0       0       0       0       0
  1384 ;;      Totals:         3       0       0       0       0       0       0       0       0       0       0       0       
      +0       0       0       0       0
  1385 ;;Total ram usage:        3 bytes
  1386 ;; Hardware stack levels used: 1
  1387 ;; Hardware stack levels required when called: 3
  1388 ;; This function calls:
  1389 ;;		_gpio_pin_direction_initialize
  1390 ;;		_gpio_pin_write_logic
  1391 ;; This function is called by:
  1392 ;;		_keypad_initialize
  1393 ;;		_led_initialize
  1394 ;;		_seven_segment_initialize
  1395 ;;		_lcd_4bit_initialize
  1396 ;;		_lcd_8bit_initialize
  1397 ;;		_dc_motor_initialize
  1398 ;;		_relay_initialize
  1399 ;;		_CCP_Init
  1400 ;;		_Interrupt_INTx_Pin_Init
  1401 ;;		_Interrupt_RBx_Pin_Init
  1402 ;; This function uses a non-reentrant model
  1403 ;;
  1404                           
  1405                           	psect	text8
  1406   00190A                     __ptext8:
  1407                           	callstack 0
  1408   00190A                     _gpio_pin_initialize:
  1409                           	callstack 24
  1410   00190A                     
  1411                           ;MCAL_Layer/GPIO/hal_gpio.c: 147:     if((((void*)0) == config) || (config->pin > 8 -1))
  1412   00190A  5073               	movf	gpio_pin_initialize@config^0,w,c
  1413   00190C  B4D8               	btfsc	status,2,c
  1414   00190E  EF8B  F00C         	goto	u3961
  1415   001912  EF8D  F00C         	goto	u3960
  1416   001916                     u3961:
  1417   001916  EF9D  F00C         	goto	l5547
  1418   00191A                     u3960:
  1419   00191A  5073               	movf	gpio_pin_initialize@config^0,w,c
  1420   00191C  6ED9               	movwf	fsr2l,c
  1421   00191E  6ADA               	clrf	fsr2h,c
  1422   001920  30DF               	rrcf	223,w,c
  1423   001922  32E8               	rrcf	wreg,f,c
  1424   001924  32E8               	rrcf	wreg,f,c
  1425   001926  0B07               	andlw	7
  1426   001928  6E74               	movwf	??_gpio_pin_initialize^0,c
  1427   00192A  0E07               	movlw	7
  1428   00192C  6474               	cpfsgt	??_gpio_pin_initialize^0,c
  1429   00192E  EF9B  F00C         	goto	u3971
  1430   001932  EF9D  F00C         	goto	u3970
  1431   001936                     u3971:
  1432   001936  EFA1  F00C         	goto	l5549
  1433   00193A                     u3970:
  1434   00193A                     l5547:
  1435                           
  1436                           ;MCAL_Layer/GPIO/hal_gpio.c: 148:     {;MCAL_Layer/GPIO/hal_gpio.c: 149:         retVal 
      +                          = (Std_ReturnType)0x00;
  1437   00193A  0E00               	movlw	0
  1438   00193C  6E75               	movwf	gpio_pin_initialize@retVal^0,c
  1439                           
  1440                           ;MCAL_Layer/GPIO/hal_gpio.c: 150:     }else{
  1441   00193E  EFB4  F00C         	goto	l5553
  1442   001942                     l5549:
  1443                           
  1444                           ;MCAL_Layer/GPIO/hal_gpio.c: 151:         retVal = gpio_pin_direction_initialize(config)
      +                          ;
  1445   001942  C073  F06B         	movff	gpio_pin_initialize@config,gpio_pin_direction_initialize@config
  1446   001946  EC0E  F00A         	call	_gpio_pin_direction_initialize	;wreg free
  1447   00194A  6E75               	movwf	gpio_pin_initialize@retVal^0,c
  1448                           
  1449                           ;MCAL_Layer/GPIO/hal_gpio.c: 152:         retVal = gpio_pin_write_logic(config , config-
      +                          >logic);
  1450   00194C  C073  F06B         	movff	gpio_pin_initialize@config,gpio_pin_write_logic@config
  1451   001950  5073               	movf	gpio_pin_initialize@config^0,w,c
  1452   001952  6ED9               	movwf	fsr2l,c
  1453   001954  6ADA               	clrf	fsr2h,c
  1454   001956  0E00               	movlw	0
  1455   001958  BCDF               	btfsc	indf2,6,c
  1456   00195A  0E01               	movlw	1
  1457   00195C  6E6C               	movwf	gpio_pin_write_logic@logic_status^0,c
  1458   00195E  EC99  F00A         	call	_gpio_pin_write_logic	;wreg free
  1459   001962  6E75               	movwf	gpio_pin_initialize@retVal^0,c
  1460   001964                     
  1461                           ;MCAL_Layer/GPIO/hal_gpio.c: 153:         retVal = (Std_ReturnType)0x01;
  1462   001964  0E01               	movlw	1
  1463   001966  6E75               	movwf	gpio_pin_initialize@retVal^0,c
  1464   001968                     l5553:
  1465                           
  1466                           ;MCAL_Layer/GPIO/hal_gpio.c: 155:     return retVal;
  1467   001968  5075               	movf	gpio_pin_initialize@retVal^0,w,c
  1468   00196A  0012               	return		;funcret
  1469   00196C                     __end_of_gpio_pin_initialize:
  1470                           	callstack 0
  1471                           
  1472 ;; *************** function _gpio_pin_write_logic *****************
  1473 ;; Defined at:
  1474 ;;		line 76 in file "MCAL_Layer/GPIO/hal_gpio.c"
  1475 ;; Parameters:    Size  Location     Type
  1476 ;;  config          1    1[COMRAM] PTR const struct .
  1477 ;;		 -> keypad1$keypad_rows_pins(4), keypad1(8), relay_turn_off@relay_obj(1), relay_turn_on@relay_obj(1), 
  1478 ;;		 -> relay_initialize@relay_obj(1), led_turn_off@pin_obj(1), led_turn_on@pin_obj(1), led_initialize@pin_obj(1), 
  1479 ;;  logic_status    1    2[COMRAM] enum E2986
  1480 ;; Auto vars:     Size  Location     Type
  1481 ;;  retVal          1    8[COMRAM] unsigned char 
  1482 ;; Return value:  Size  Location     Type
  1483 ;;                  1    wreg      unsigned char 
  1484 ;; Registers used:
  1485 ;;		wreg, fsr2l, fsr2h, status,2, status,0, prodl, prodh
  1486 ;; Tracked objects:
  1487 ;;		On entry : 0/0
  1488 ;;		On exit  : 0/0
  1489 ;;		Unchanged: 0/0
  1490 ;; Data sizes:     COMRAM   BANK0   BANK1   BANK2   BANK3   BANK4   BANK5   BANK6   BANK7   BANK8   BANK9  BANK10  BANK1
      +1  BANK12  BANK13  BANK14  BANK15
  1491 ;;      Params:         2       0       0       0       0       0       0       0       0       0       0       0       
      +0       0       0       0       0
  1492 ;;      Locals:         1       0       0       0       0       0       0       0       0       0       0       0       
      +0       0       0       0       0
  1493 ;;      Temps:          5       0       0       0       0       0       0       0       0       0       0       0       
      +0       0       0       0       0
  1494 ;;      Totals:         8       0       0       0       0       0       0       0       0       0       0       0       
      +0       0       0       0       0
  1495 ;;Total ram usage:        8 bytes
  1496 ;; Hardware stack levels used: 1
  1497 ;; Hardware stack levels required when called: 2
  1498 ;; This function calls:
  1499 ;;		Nothing
  1500 ;; This function is called by:
  1501 ;;		_keypad_get_value
  1502 ;;		_gpio_pin_initialize
  1503 ;;		_seven_segment_write_number
  1504 ;;		_lcd_4bit_send_command
  1505 ;;		_lcd_4bit_send_char_data
  1506 ;;		_lcd_8bit_send_command
  1507 ;;		_lcd_8bit_send_char_data
  1508 ;;		_lcd_send_4bits
  1509 ;;		_lcd_4bit_send_enable_signal
  1510 ;;		_lcd_8bit_send_enable_signal
  1511 ;;		_dc_motor_move_right
  1512 ;;		_dc_motor_move_left
  1513 ;;		_dc_motor_stop
  1514 ;;		_led_turn_on
  1515 ;;		_led_turn_off
  1516 ;;		_relay_turn_on
  1517 ;;		_relay_turn_off
  1518 ;;		_Ultrasonic_Calculate_Distance
  1519 ;; This function uses a non-reentrant model
  1520 ;;
  1521                           
  1522                           	psect	text9
  1523   001532                     __ptext9:
  1524                           	callstack 0
  1525   001532                     _gpio_pin_write_logic:
  1526                           	callstack 27
  1527   001532                     
  1528                           ;MCAL_Layer/GPIO/hal_gpio.c: 78:     if((((void*)0) == config) || (config->pin > 8 -1))
  1529   001532  506B               	movf	gpio_pin_write_logic@config^0,w,c
  1530   001534  B4D8               	btfsc	status,2,c
  1531   001536  EF9F  F00A         	goto	u3871
  1532   00153A  EFA1  F00A         	goto	u3870
  1533   00153E                     u3871:
  1534   00153E  EFB1  F00A         	goto	l5507
  1535   001542                     u3870:
  1536   001542  506B               	movf	gpio_pin_write_logic@config^0,w,c
  1537   001544  6ED9               	movwf	fsr2l,c
  1538   001546  6ADA               	clrf	fsr2h,c
  1539   001548  30DF               	rrcf	223,w,c
  1540   00154A  32E8               	rrcf	wreg,f,c
  1541   00154C  32E8               	rrcf	wreg,f,c
  1542   00154E  0B07               	andlw	7
  1543   001550  6E6D               	movwf	??_gpio_pin_write_logic^0,c
  1544   001552  0E07               	movlw	7
  1545   001554  646D               	cpfsgt	??_gpio_pin_write_logic^0,c
  1546   001556  EFAF  F00A         	goto	u3881
  1547   00155A  EFB1  F00A         	goto	u3880
  1548   00155E                     u3881:
  1549   00155E  EF0A  F00B         	goto	l5515
  1550   001562                     u3880:
  1551   001562                     l5507:
  1552                           
  1553                           ;MCAL_Layer/GPIO/hal_gpio.c: 79:     {;MCAL_Layer/GPIO/hal_gpio.c: 80:         retVal = 
      +                          (Std_ReturnType)0x00;
  1554   001562  0E00               	movlw	0
  1555   001564  6E72               	movwf	gpio_pin_write_logic@retVal^0,c
  1556                           
  1557                           ;MCAL_Layer/GPIO/hal_gpio.c: 81:     }else{
  1558   001566  EF21  F00B         	goto	l930
  1559   00156A                     l5509:
  1560                           
  1561                           ;MCAL_Layer/GPIO/hal_gpio.c: 84:                 (*lat_registers[config->port] &=~(((uin
      +                          t8)1<<config->pin)));
  1562   00156A  506B               	movf	gpio_pin_write_logic@config^0,w,c
  1563   00156C  6ED9               	movwf	fsr2l,c
  1564   00156E  6ADA               	clrf	fsr2h,c
  1565   001570  30DF               	rrcf	223,w,c
  1566   001572  32E8               	rrcf	wreg,f,c
  1567   001574  32E8               	rrcf	wreg,f,c
  1568   001576  0B07               	andlw	7
  1569   001578  6E6D               	movwf	??_gpio_pin_write_logic^0,c
  1570   00157A  0E01               	movlw	1
  1571   00157C  6E6E               	movwf	(??_gpio_pin_write_logic+1)^0,c
  1572   00157E  2A6D               	incf	??_gpio_pin_write_logic^0,f,c
  1573   001580  EFC4  F00A         	goto	u3894
  1574   001584                     u3895:
  1575   001584  90D8               	bcf	status,0,c
  1576   001586  366E               	rlcf	(??_gpio_pin_write_logic+1)^0,f,c
  1577   001588                     u3894:
  1578   001588  2E6D               	decfsz	??_gpio_pin_write_logic^0,f,c
  1579   00158A  EFC2  F00A         	goto	u3895
  1580   00158E  506E               	movf	(??_gpio_pin_write_logic+1)^0,w,c
  1581   001590  0AFF               	xorlw	255
  1582   001592  6E6F               	movwf	(??_gpio_pin_write_logic+2)^0,c
  1583   001594  506B               	movf	gpio_pin_write_logic@config^0,w,c
  1584   001596  6ED9               	movwf	fsr2l,c
  1585   001598  6ADA               	clrf	fsr2h,c
  1586   00159A  50DF               	movf	223,w,c
  1587   00159C  0B07               	andlw	7
  1588   00159E  0D02               	mullw	2
  1589   0015A0  50F3               	movf	243,w,c
  1590   0015A2  0F4A               	addlw	low _lat_registers
  1591   0015A4  6ED9               	movwf	fsr2l,c
  1592   0015A6  6ADA               	clrf	fsr2h,c
  1593   0015A8  CFDE F070          	movff	postinc2,??_gpio_pin_write_logic+3
  1594   0015AC  CFDD F071          	movff	postdec2,??_gpio_pin_write_logic+4
  1595   0015B0  C070  FFD9         	movff	??_gpio_pin_write_logic+3,fsr2l
  1596   0015B4  C071  FFDA         	movff	??_gpio_pin_write_logic+4,fsr2h
  1597   0015B8  506F               	movf	(??_gpio_pin_write_logic+2)^0,w,c
  1598   0015BA  16DF               	andwf	indf2,f,c
  1599                           
  1600                           ;MCAL_Layer/GPIO/hal_gpio.c: 85:                 break;
  1601   0015BC  EF1F  F00B         	goto	l5517
  1602   0015C0                     l5511:
  1603                           
  1604                           ;MCAL_Layer/GPIO/hal_gpio.c: 87:                 (*lat_registers[config->port] |=((uint8
      +                          )1<<config->pin));
  1605   0015C0  506B               	movf	gpio_pin_write_logic@config^0,w,c
  1606   0015C2  6ED9               	movwf	fsr2l,c
  1607   0015C4  6ADA               	clrf	fsr2h,c
  1608   0015C6  30DF               	rrcf	223,w,c
  1609   0015C8  32E8               	rrcf	wreg,f,c
  1610   0015CA  32E8               	rrcf	wreg,f,c
  1611   0015CC  0B07               	andlw	7
  1612   0015CE  6E6D               	movwf	??_gpio_pin_write_logic^0,c
  1613   0015D0  0E01               	movlw	1
  1614   0015D2  6E6E               	movwf	(??_gpio_pin_write_logic+1)^0,c
  1615   0015D4  2A6D               	incf	??_gpio_pin_write_logic^0,f,c
  1616   0015D6  EFEF  F00A         	goto	u3904
  1617   0015DA                     u3905:
  1618   0015DA  90D8               	bcf	status,0,c
  1619   0015DC  366E               	rlcf	(??_gpio_pin_write_logic+1)^0,f,c
  1620   0015DE                     u3904:
  1621   0015DE  2E6D               	decfsz	??_gpio_pin_write_logic^0,f,c
  1622   0015E0  EFED  F00A         	goto	u3905
  1623   0015E4  506B               	movf	gpio_pin_write_logic@config^0,w,c
  1624   0015E6  6ED9               	movwf	fsr2l,c
  1625   0015E8  6ADA               	clrf	fsr2h,c
  1626   0015EA  50DF               	movf	223,w,c
  1627   0015EC  0B07               	andlw	7
  1628   0015EE  0D02               	mullw	2
  1629   0015F0  50F3               	movf	243,w,c
  1630   0015F2  0F4A               	addlw	low _lat_registers
  1631   0015F4  6ED9               	movwf	fsr2l,c
  1632   0015F6  6ADA               	clrf	fsr2h,c
  1633   0015F8  CFDE F06F          	movff	postinc2,??_gpio_pin_write_logic+2
  1634   0015FC  CFDD F070          	movff	postdec2,??_gpio_pin_write_logic+3
  1635   001600  C06F  FFD9         	movff	??_gpio_pin_write_logic+2,fsr2l
  1636   001604  C070  FFDA         	movff	??_gpio_pin_write_logic+3,fsr2h
  1637   001608  506E               	movf	(??_gpio_pin_write_logic+1)^0,w,c
  1638   00160A  12DF               	iorwf	indf2,f,c
  1639                           
  1640                           ;MCAL_Layer/GPIO/hal_gpio.c: 88:                 break;
  1641   00160C  EF1F  F00B         	goto	l5517
  1642   001610                     l5513:
  1643                           
  1644                           ;MCAL_Layer/GPIO/hal_gpio.c: 90:         }
  1645   001610  EF1F  F00B         	goto	l5517
  1646   001614                     l5515:
  1647   001614  506C               	movf	gpio_pin_write_logic@logic_status^0,w,c
  1648   001616  6E6D               	movwf	??_gpio_pin_write_logic^0,c
  1649   001618  6A6E               	clrf	(??_gpio_pin_write_logic+1)^0,c
  1650                           
  1651                           ; Switch on 2 bytes has been partitioned into a top level switch of size 1, and 1 sub-sw
      +                          itches
  1652                           ; Switch size 1, requested type "simple"
  1653                           ; Number of cases is 1, Range of values is 0 to 0
  1654                           ; switch strategies available:
  1655                           ; Name         Instructions Cycles
  1656                           ; simple_byte            4     3 (average)
  1657                           ;	Chosen strategy is simple_byte
  1658   00161A  506E               	movf	(??_gpio_pin_write_logic+1)^0,w,c
  1659   00161C  0A00               	xorlw	0	; case 0
  1660   00161E  B4D8               	btfsc	status,2,c
  1661   001620  EF14  F00B         	goto	l6621
  1662   001624  EF08  F00B         	goto	l5513
  1663   001628                     l6621:
  1664                           
  1665                           ; Switch size 1, requested type "simple"
  1666                           ; Number of cases is 2, Range of values is 0 to 1
  1667                           ; switch strategies available:
  1668                           ; Name         Instructions Cycles
  1669                           ; simple_byte            7     4 (average)
  1670                           ;	Chosen strategy is simple_byte
  1671   001628  506D               	movf	??_gpio_pin_write_logic^0,w,c
  1672   00162A  0A00               	xorlw	0	; case 0
  1673   00162C  B4D8               	btfsc	status,2,c
  1674   00162E  EFB5  F00A         	goto	l5509
  1675   001632  0A01               	xorlw	1	; case 1
  1676   001634  B4D8               	btfsc	status,2,c
  1677   001636  EFE0  F00A         	goto	l5511
  1678   00163A  EF08  F00B         	goto	l5513
  1679   00163E                     l5517:
  1680                           
  1681                           ;MCAL_Layer/GPIO/hal_gpio.c: 91:         retVal = (Std_ReturnType)0x01;
  1682   00163E  0E01               	movlw	1
  1683   001640  6E72               	movwf	gpio_pin_write_logic@retVal^0,c
  1684   001642                     l930:
  1685                           
  1686                           ;MCAL_Layer/GPIO/hal_gpio.c: 93:     return retVal;
  1687   001642  5072               	movf	gpio_pin_write_logic@retVal^0,w,c
  1688   001644  0012               	return		;funcret
  1689   001646                     __end_of_gpio_pin_write_logic:
  1690                           	callstack 0
  1691                           
  1692 ;; *************** function _gpio_pin_direction_initialize *****************
  1693 ;; Defined at:
  1694 ;;		line 26 in file "MCAL_Layer/GPIO/hal_gpio.c"
  1695 ;; Parameters:    Size  Location     Type
  1696 ;;  config          1    1[COMRAM] PTR const struct .
  1697 ;;		 -> MSSP_SPI_Slave_Mode_GPIO_PIN_Configurations@SPI_SS(1), MSSP_SPI_Slave_Mode_GPIO_PIN_Configurations@SPI_CLK(1), M
      +SSP_SPI_Slave_Mode_GPIO_PIN_Configurations@SPI_SDI(1), MSSP_SPI_Slave_Mode_GPIO_PIN_Configurations@SPI_SDO(1), 
  1698 ;;		 -> MSSP_SPI_Msster_Mode_GPIO_PIN_Configurations@SPI_CLK(1), MSSP_SPI_Msster_Mode_GPIO_PIN_Configurations@SPI_SDI(1)
      +, MSSP_SPI_Msster_Mode_GPIO_PIN_Configurations@SPI_SDO(1), keypad1$keypad_columns_pins(4), 
  1699 ;;		 -> keypad1$keypad_rows_pins(4), keypad1(8), relay_initialize@relay_obj(1), led_initialize@pin_obj(1), 
  1700 ;; Auto vars:     Size  Location     Type
  1701 ;;  retVal          1    7[COMRAM] unsigned char 
  1702 ;; Return value:  Size  Location     Type
  1703 ;;                  1    wreg      unsigned char 
  1704 ;; Registers used:
  1705 ;;		wreg, fsr2l, fsr2h, status,2, status,0, prodl, prodh
  1706 ;; Tracked objects:
  1707 ;;		On entry : 0/0
  1708 ;;		On exit  : 0/0
  1709 ;;		Unchanged: 0/0
  1710 ;; Data sizes:     COMRAM   BANK0   BANK1   BANK2   BANK3   BANK4   BANK5   BANK6   BANK7   BANK8   BANK9  BANK10  BANK1
      +1  BANK12  BANK13  BANK14  BANK15
  1711 ;;      Params:         1       0       0       0       0       0       0       0       0       0       0       0       
      +0       0       0       0       0
  1712 ;;      Locals:         1       0       0       0       0       0       0       0       0       0       0       0       
      +0       0       0       0       0
  1713 ;;      Temps:          5       0       0       0       0       0       0       0       0       0       0       0       
      +0       0       0       0       0
  1714 ;;      Totals:         7       0       0       0       0       0       0       0       0       0       0       0       
      +0       0       0       0       0
  1715 ;;Total ram usage:        7 bytes
  1716 ;; Hardware stack levels used: 1
  1717 ;; Hardware stack levels required when called: 2
  1718 ;; This function calls:
  1719 ;;		Nothing
  1720 ;; This function is called by:
  1721 ;;		_keypad_initialize
  1722 ;;		_gpio_pin_initialize
  1723 ;;		_button_initialize
  1724 ;;		_MSSP_SPI_Msster_Mode_GPIO_PIN_Configurations
  1725 ;;		_MSSP_SPI_Slave_Mode_GPIO_PIN_Configurations
  1726 ;; This function uses a non-reentrant model
  1727 ;;
  1728                           
  1729                           	psect	text10
  1730   00141C                     __ptext10:
  1731                           	callstack 0
  1732   00141C                     _gpio_pin_direction_initialize:
  1733                           	callstack 24
  1734   00141C                     
  1735                           ;MCAL_Layer/GPIO/hal_gpio.c: 28:     if((((void*)0) == config) || (config->pin > 8 -1))
  1736   00141C  506B               	movf	gpio_pin_direction_initialize@config^0,w,c
  1737   00141E  B4D8               	btfsc	status,2,c
  1738   001420  EF14  F00A         	goto	u3911
  1739   001424  EF16  F00A         	goto	u3910
  1740   001428                     u3911:
  1741   001428  EF26  F00A         	goto	l5529
  1742   00142C                     u3910:
  1743   00142C  506B               	movf	gpio_pin_direction_initialize@config^0,w,c
  1744   00142E  6ED9               	movwf	fsr2l,c
  1745   001430  6ADA               	clrf	fsr2h,c
  1746   001432  30DF               	rrcf	223,w,c
  1747   001434  32E8               	rrcf	wreg,f,c
  1748   001436  32E8               	rrcf	wreg,f,c
  1749   001438  0B07               	andlw	7
  1750   00143A  6E6C               	movwf	??_gpio_pin_direction_initialize^0,c
  1751   00143C  0E07               	movlw	7
  1752   00143E  646C               	cpfsgt	??_gpio_pin_direction_initialize^0,c
  1753   001440  EF24  F00A         	goto	u3921
  1754   001444  EF26  F00A         	goto	u3920
  1755   001448                     u3921:
  1756   001448  EF7F  F00A         	goto	l5537
  1757   00144C                     u3920:
  1758   00144C                     l5529:
  1759                           
  1760                           ;MCAL_Layer/GPIO/hal_gpio.c: 29:     {;MCAL_Layer/GPIO/hal_gpio.c: 30:         retVal = 
      +                          (Std_ReturnType)0x00;
  1761   00144C  0E00               	movlw	0
  1762   00144E  6E71               	movwf	gpio_pin_direction_initialize@retVal^0,c
  1763                           
  1764                           ;MCAL_Layer/GPIO/hal_gpio.c: 31:     }else{
  1765   001450  EF97  F00A         	goto	l911
  1766   001454                     l5531:
  1767                           
  1768                           ;MCAL_Layer/GPIO/hal_gpio.c: 34:             (*tris_registers[config->port] &=~(((uint8)
      +                          1<<config->pin)));
  1769   001454  506B               	movf	gpio_pin_direction_initialize@config^0,w,c
  1770   001456  6ED9               	movwf	fsr2l,c
  1771   001458  6ADA               	clrf	fsr2h,c
  1772   00145A  30DF               	rrcf	223,w,c
  1773   00145C  32E8               	rrcf	wreg,f,c
  1774   00145E  32E8               	rrcf	wreg,f,c
  1775   001460  0B07               	andlw	7
  1776   001462  6E6C               	movwf	??_gpio_pin_direction_initialize^0,c
  1777   001464  0E01               	movlw	1
  1778   001466  6E6D               	movwf	(??_gpio_pin_direction_initialize+1)^0,c
  1779   001468  2A6C               	incf	??_gpio_pin_direction_initialize^0,f,c
  1780   00146A  EF39  F00A         	goto	u3934
  1781   00146E                     u3935:
  1782   00146E  90D8               	bcf	status,0,c
  1783   001470  366D               	rlcf	(??_gpio_pin_direction_initialize+1)^0,f,c
  1784   001472                     u3934:
  1785   001472  2E6C               	decfsz	??_gpio_pin_direction_initialize^0,f,c
  1786   001474  EF37  F00A         	goto	u3935
  1787   001478  506D               	movf	(??_gpio_pin_direction_initialize+1)^0,w,c
  1788   00147A  0AFF               	xorlw	255
  1789   00147C  6E6E               	movwf	(??_gpio_pin_direction_initialize+2)^0,c
  1790   00147E  506B               	movf	gpio_pin_direction_initialize@config^0,w,c
  1791   001480  6ED9               	movwf	fsr2l,c
  1792   001482  6ADA               	clrf	fsr2h,c
  1793   001484  50DF               	movf	223,w,c
  1794   001486  0B07               	andlw	7
  1795   001488  0D02               	mullw	2
  1796   00148A  50F3               	movf	243,w,c
  1797   00148C  0F54               	addlw	low _tris_registers
  1798   00148E  6ED9               	movwf	fsr2l,c
  1799   001490  6ADA               	clrf	fsr2h,c
  1800   001492  CFDE F06F          	movff	postinc2,??_gpio_pin_direction_initialize+3
  1801   001496  CFDD F070          	movff	postdec2,??_gpio_pin_direction_initialize+4
  1802   00149A  C06F  FFD9         	movff	??_gpio_pin_direction_initialize+3,fsr2l
  1803   00149E  C070  FFDA         	movff	??_gpio_pin_direction_initialize+4,fsr2h
  1804   0014A2  506E               	movf	(??_gpio_pin_direction_initialize+2)^0,w,c
  1805   0014A4  16DF               	andwf	indf2,f,c
  1806                           
  1807                           ;MCAL_Layer/GPIO/hal_gpio.c: 35:             break;
  1808   0014A6  EF95  F00A         	goto	l5539
  1809   0014AA                     l5533:
  1810                           
  1811                           ;MCAL_Layer/GPIO/hal_gpio.c: 37:             (*tris_registers[config->port] |=((uint8)1<
      +                          <config->pin));
  1812   0014AA  506B               	movf	gpio_pin_direction_initialize@config^0,w,c
  1813   0014AC  6ED9               	movwf	fsr2l,c
  1814   0014AE  6ADA               	clrf	fsr2h,c
  1815   0014B0  30DF               	rrcf	223,w,c
  1816   0014B2  32E8               	rrcf	wreg,f,c
  1817   0014B4  32E8               	rrcf	wreg,f,c
  1818   0014B6  0B07               	andlw	7
  1819   0014B8  6E6C               	movwf	??_gpio_pin_direction_initialize^0,c
  1820   0014BA  0E01               	movlw	1
  1821   0014BC  6E6D               	movwf	(??_gpio_pin_direction_initialize+1)^0,c
  1822   0014BE  2A6C               	incf	??_gpio_pin_direction_initialize^0,f,c
  1823   0014C0  EF64  F00A         	goto	u3944
  1824   0014C4                     u3945:
  1825   0014C4  90D8               	bcf	status,0,c
  1826   0014C6  366D               	rlcf	(??_gpio_pin_direction_initialize+1)^0,f,c
  1827   0014C8                     u3944:
  1828   0014C8  2E6C               	decfsz	??_gpio_pin_direction_initialize^0,f,c
  1829   0014CA  EF62  F00A         	goto	u3945
  1830   0014CE  506B               	movf	gpio_pin_direction_initialize@config^0,w,c
  1831   0014D0  6ED9               	movwf	fsr2l,c
  1832   0014D2  6ADA               	clrf	fsr2h,c
  1833   0014D4  50DF               	movf	223,w,c
  1834   0014D6  0B07               	andlw	7
  1835   0014D8  0D02               	mullw	2
  1836   0014DA  50F3               	movf	243,w,c
  1837   0014DC  0F54               	addlw	low _tris_registers
  1838   0014DE  6ED9               	movwf	fsr2l,c
  1839   0014E0  6ADA               	clrf	fsr2h,c
  1840   0014E2  CFDE F06E          	movff	postinc2,??_gpio_pin_direction_initialize+2
  1841   0014E6  CFDD F06F          	movff	postdec2,??_gpio_pin_direction_initialize+3
  1842   0014EA  C06E  FFD9         	movff	??_gpio_pin_direction_initialize+2,fsr2l
  1843   0014EE  C06F  FFDA         	movff	??_gpio_pin_direction_initialize+3,fsr2h
  1844   0014F2  506D               	movf	(??_gpio_pin_direction_initialize+1)^0,w,c
  1845   0014F4  12DF               	iorwf	indf2,f,c
  1846                           
  1847                           ;MCAL_Layer/GPIO/hal_gpio.c: 38:             break;
  1848   0014F6  EF95  F00A         	goto	l5539
  1849   0014FA                     l5535:
  1850                           
  1851                           ;MCAL_Layer/GPIO/hal_gpio.c: 40:     }
  1852   0014FA  EF95  F00A         	goto	l5539
  1853   0014FE                     l5537:
  1854   0014FE  506B               	movf	gpio_pin_direction_initialize@config^0,w,c
  1855   001500  6ED9               	movwf	fsr2l,c
  1856   001502  6ADA               	clrf	fsr2h,c
  1857   001504  BEDF               	btfsc	indf2,7,c
  1858   001506  EF87  F00A         	goto	u3951
  1859   00150A  EF8A  F00A         	goto	u3950
  1860   00150E                     u3951:
  1861   00150E  0E01               	movlw	1
  1862   001510  EF8B  F00A         	goto	u3956
  1863   001514                     u3950:
  1864   001514  0E00               	movlw	0
  1865   001516                     u3956:
  1866                           
  1867                           ; Switch size 1, requested type "simple"
  1868                           ; Number of cases is 2, Range of values is 0 to 1
  1869                           ; switch strategies available:
  1870                           ; Name         Instructions Cycles
  1871                           ; simple_byte            7     4 (average)
  1872                           ;	Chosen strategy is simple_byte
  1873   001516  0A00               	xorlw	0	; case 0
  1874   001518  B4D8               	btfsc	status,2,c
  1875   00151A  EF2A  F00A         	goto	l5531
  1876   00151E  0A01               	xorlw	1	; case 1
  1877   001520  B4D8               	btfsc	status,2,c
  1878   001522  EF55  F00A         	goto	l5533
  1879   001526  EF7D  F00A         	goto	l5535
  1880   00152A                     l5539:
  1881                           
  1882                           ;MCAL_Layer/GPIO/hal_gpio.c: 41:         retVal = (Std_ReturnType)0x01;
  1883   00152A  0E01               	movlw	1
  1884   00152C  6E71               	movwf	gpio_pin_direction_initialize@retVal^0,c
  1885   00152E                     l911:
  1886                           
  1887                           ;MCAL_Layer/GPIO/hal_gpio.c: 43:     return retVal;
  1888   00152E  5071               	movf	gpio_pin_direction_initialize@retVal^0,w,c
  1889   001530  0012               	return		;funcret
  1890   001532                     __end_of_gpio_pin_direction_initialize:
  1891                           	callstack 0
  1892                           
  1893 ;; *************** function _InterruptManagerHigh *****************
  1894 ;; Defined at:
  1895 ;;		line 32 in file "MCAL_Layer/Interrupt/mcal_interrupt_manager.c"
  1896 ;; Parameters:    Size  Location     Type
  1897 ;;		None
  1898 ;; Auto vars:     Size  Location     Type
  1899 ;;		None
  1900 ;; Return value:  Size  Location     Type
  1901 ;;                  1    wreg      void 
  1902 ;; Registers used:
  1903 ;;		wreg, status,2, status,0, cstack
  1904 ;; Tracked objects:
  1905 ;;		On entry : 0/0
  1906 ;;		On exit  : 0/0
  1907 ;;		Unchanged: 0/0
  1908 ;; Data sizes:     COMRAM   BANK0   BANK1   BANK2   BANK3   BANK4   BANK5   BANK6   BANK7   BANK8   BANK9  BANK10  BANK1
      +1  BANK12  BANK13  BANK14  BANK15
  1909 ;;      Params:         0       0       0       0       0       0       0       0       0       0       0       0       
      +0       0       0       0       0
  1910 ;;      Locals:         0       0       0       0       0       0       0       0       0       0       0       0       
      +0       0       0       0       0
  1911 ;;      Temps:          0       0       0       0       0       0       0       0       0       0       0       0       
      +0       0       0       0       0
  1912 ;;      Totals:         0       0       0       0       0       0       0       0       0       0       0       0       
      +0       0       0       0       0
  1913 ;;Total ram usage:        0 bytes
  1914 ;; Hardware stack levels used: 1
  1915 ;; Hardware stack levels required when called: 1
  1916 ;; This function calls:
  1917 ;;		_ADC_ISR
  1918 ;;		_CCP1_ISR
  1919 ;;		_CCP2_ISR
  1920 ;;		_EUSART_Rx_ISR
  1921 ;;		_EUSART_Tx_ISR
  1922 ;;		_INT0_ISR
  1923 ;;		_INT1_ISR
  1924 ;;		_INT2_ISR
  1925 ;;		_MSSP_I2C_BC_ISR
  1926 ;;		_MSSP_I2C_ISR
  1927 ;;		_MSSP_SPI_ISR
  1928 ;;		_RB4_ISR
  1929 ;;		_RB5_ISR
  1930 ;;		_RB6_ISR
  1931 ;;		_RB7_ISR
  1932 ;;		_TMR0_ISR
  1933 ;;		_TMR1_ISR
  1934 ;;		_TMR2_ISR
  1935 ;;		_TMR3_ISR
  1936 ;; This function is called by:
  1937 ;;		Interrupt level 2
  1938 ;; This function uses a non-reentrant model
  1939 ;;
  1940                           
  1941                           	psect	intcode
  1942   000008                     __pintcode:
  1943                           	callstack 0
  1944   000008                     _InterruptManagerHigh:
  1945                           	callstack 24
  1946                           
  1947                           ;incstack = 0
  1948   000008  827B               	bsf	int$flags,1,c	;set compiler interrupt flag (level 2)
  1949   00000A  ED0B  F008         	call	int_func,f	;refresh shadow registers
  1950                           
  1951                           	psect	intcode_body
  1952   001016                     __pintcode_body:
  1953                           	callstack 24
  1954   001016                     int_func:
  1955                           	callstack 24
  1956   001016  0006               	pop		; remove dummy address from shadow register refresh
  1957   001018                     
  1958                           ;MCAL_Layer/Interrupt/mcal_interrupt_manager.c: 34:     if((1 == INTCONbits.INT0IE) && (
      +                          1 == INTCONbits.INT0IF)){
  1959   001018  A8F2               	btfss	242,4,c	;volatile
  1960   00101A  EF11  F008         	goto	i2u266_41
  1961   00101E  EF13  F008         	goto	i2u266_40
  1962   001022                     i2u266_41:
  1963   001022  EF1C  F008         	goto	i2l4849
  1964   001026                     i2u266_40:
  1965   001026  A2F2               	btfss	242,1,c	;volatile
  1966   001028  EF18  F008         	goto	i2u267_41
  1967   00102C  EF1A  F008         	goto	i2u267_40
  1968   001030                     i2u267_41:
  1969   001030  EF1C  F008         	goto	i2l4849
  1970   001034                     i2u267_40:
  1971   001034                     
  1972                           ;MCAL_Layer/Interrupt/mcal_interrupt_manager.c: 35:         INT0_ISR();
  1973   001034  EC3D  F00D         	call	_INT0_ISR	;wreg free
  1974   001038                     i2l4849:
  1975                           
  1976                           ;MCAL_Layer/Interrupt/mcal_interrupt_manager.c: 37:     if((1 == INTCON3bits.INT1IE) && 
      +                          (1 == INTCON3bits.INT1IF)){
  1977   001038  A6F0               	btfss	240,3,c	;volatile
  1978   00103A  EF21  F008         	goto	i2u268_41
  1979   00103E  EF23  F008         	goto	i2u268_40
  1980   001042                     i2u268_41:
  1981   001042  EF2C  F008         	goto	i2l4855
  1982   001046                     i2u268_40:
  1983   001046  A0F0               	btfss	240,0,c	;volatile
  1984   001048  EF28  F008         	goto	i2u269_41
  1985   00104C  EF2A  F008         	goto	i2u269_40
  1986   001050                     i2u269_41:
  1987   001050  EF2C  F008         	goto	i2l4855
  1988   001054                     i2u269_40:
  1989   001054                     
  1990                           ;MCAL_Layer/Interrupt/mcal_interrupt_manager.c: 38:         INT1_ISR();
  1991   001054  EC3B  F00D         	call	_INT1_ISR	;wreg free
  1992   001058                     i2l4855:
  1993                           
  1994                           ;MCAL_Layer/Interrupt/mcal_interrupt_manager.c: 40:     if((1 == INTCON3bits.INT2IE) && 
      +                          (1 == INTCON3bits.INT2IF)){
  1995   001058  A8F0               	btfss	240,4,c	;volatile
  1996   00105A  EF31  F008         	goto	i2u270_41
  1997   00105E  EF33  F008         	goto	i2u270_40
  1998   001062                     i2u270_41:
  1999   001062  EF3C  F008         	goto	i2l4861
  2000   001066                     i2u270_40:
  2001   001066  A2F0               	btfss	240,1,c	;volatile
  2002   001068  EF38  F008         	goto	i2u271_41
  2003   00106C  EF3A  F008         	goto	i2u271_40
  2004   001070                     i2u271_41:
  2005   001070  EF3C  F008         	goto	i2l4861
  2006   001074                     i2u271_40:
  2007   001074                     
  2008                           ;MCAL_Layer/Interrupt/mcal_interrupt_manager.c: 41:         INT2_ISR();
  2009   001074  EC39  F00D         	call	_INT2_ISR	;wreg free
  2010   001078                     i2l4861:
  2011                           
  2012                           ;MCAL_Layer/Interrupt/mcal_interrupt_manager.c: 46:     if((1 == INTCONbits.RBIE) && (1 
      +                          == INTCONbits.RBIF)
  2013   001078  A6F2               	btfss	242,3,c	;volatile
  2014   00107A  EF41  F008         	goto	i2u272_41
  2015   00107E  EF43  F008         	goto	i2u272_40
  2016   001082                     i2u272_41:
  2017   001082  EF5E  F008         	goto	i2l4873
  2018   001086                     i2u272_40:
  2019   001086  A0F2               	btfss	242,0,c	;volatile
  2020   001088  EF48  F008         	goto	i2u273_41
  2021   00108C  EF4A  F008         	goto	i2u273_40
  2022   001090                     i2u273_41:
  2023   001090  EF5E  F008         	goto	i2l4873
  2024   001094                     i2u273_40:
  2025   001094  A881               	btfss	129,4,c	;volatile
  2026   001096  EF4F  F008         	goto	i2u274_41
  2027   00109A  EF51  F008         	goto	i2u274_40
  2028   00109E                     i2u274_41:
  2029   00109E  EF5E  F008         	goto	i2l4873
  2030   0010A2                     i2u274_40:
  2031   0010A2  0468               	decf	_RB4_flag^0,w,c	;volatile
  2032   0010A4  A4D8               	btfss	status,2,c
  2033   0010A6  EF57  F008         	goto	i2u275_41
  2034   0010AA  EF59  F008         	goto	i2u275_40
  2035   0010AE                     i2u275_41:
  2036   0010AE  EF5E  F008         	goto	i2l4873
  2037   0010B2                     i2u275_40:
  2038   0010B2                     
  2039                           ;MCAL_Layer/Interrupt/mcal_interrupt_manager.c: 47:             && (PORTBbits.RB4 == GPI
      +                          O_HIGH) && (RB4_flag == 1)){;MCAL_Layer/Interrupt/mcal_interrupt_manager.c: 48:         
      +                          RB4_flag = 0;
  2040   0010B2  0E00               	movlw	0
  2041   0010B4  6E68               	movwf	_RB4_flag^0,c	;volatile
  2042   0010B6                     
  2043                           ;MCAL_Layer/Interrupt/mcal_interrupt_manager.c: 49:         RB4_ISR(0);
  2044   0010B6  0E00               	movlw	0
  2045   0010B8  ECED  F00C         	call	_RB4_ISR
  2046   0010BC                     i2l4873:
  2047                           
  2048                           ;MCAL_Layer/Interrupt/mcal_interrupt_manager.c: 51:     if((1 == INTCONbits.RBIE) && (1 
      +                          == INTCONbits.RBIF)
  2049   0010BC  A6F2               	btfss	242,3,c	;volatile
  2050   0010BE  EF63  F008         	goto	i2u276_41
  2051   0010C2  EF65  F008         	goto	i2u276_40
  2052   0010C6                     i2u276_41:
  2053   0010C6  EF80  F008         	goto	i2l4885
  2054   0010CA                     i2u276_40:
  2055   0010CA  A0F2               	btfss	242,0,c	;volatile
  2056   0010CC  EF6A  F008         	goto	i2u277_41
  2057   0010D0  EF6C  F008         	goto	i2u277_40
  2058   0010D4                     i2u277_41:
  2059   0010D4  EF80  F008         	goto	i2l4885
  2060   0010D8                     i2u277_40:
  2061   0010D8  B881               	btfsc	129,4,c	;volatile
  2062   0010DA  EF71  F008         	goto	i2u278_41
  2063   0010DE  EF73  F008         	goto	i2u278_40
  2064   0010E2                     i2u278_41:
  2065   0010E2  EF80  F008         	goto	i2l4885
  2066   0010E6                     i2u278_40:
  2067   0010E6  5068               	movf	_RB4_flag^0,w,c	;volatile
  2068   0010E8  A4D8               	btfss	status,2,c
  2069   0010EA  EF79  F008         	goto	i2u279_41
  2070   0010EE  EF7B  F008         	goto	i2u279_40
  2071   0010F2                     i2u279_41:
  2072   0010F2  EF80  F008         	goto	i2l4885
  2073   0010F6                     i2u279_40:
  2074   0010F6                     
  2075                           ;MCAL_Layer/Interrupt/mcal_interrupt_manager.c: 52:             && (PORTBbits.RB4 == GPI
      +                          O_LOW) && (RB4_flag == 0)){;MCAL_Layer/Interrupt/mcal_interrupt_manager.c: 53:         R
      +                          B4_flag = 1;
  2076   0010F6  0E01               	movlw	1
  2077   0010F8  6E68               	movwf	_RB4_flag^0,c	;volatile
  2078   0010FA                     
  2079                           ;MCAL_Layer/Interrupt/mcal_interrupt_manager.c: 54:         RB4_ISR(1);
  2080   0010FA  0E01               	movlw	1
  2081   0010FC  ECED  F00C         	call	_RB4_ISR
  2082   001100                     i2l4885:
  2083                           
  2084                           ;MCAL_Layer/Interrupt/mcal_interrupt_manager.c: 56:     if((1 == INTCONbits.RBIE) && (1 
      +                          == INTCONbits.RBIF)
  2085   001100  A6F2               	btfss	242,3,c	;volatile
  2086   001102  EF85  F008         	goto	i2u280_41
  2087   001106  EF87  F008         	goto	i2u280_40
  2088   00110A                     i2u280_41:
  2089   00110A  EFA2  F008         	goto	i2l4897
  2090   00110E                     i2u280_40:
  2091   00110E  A0F2               	btfss	242,0,c	;volatile
  2092   001110  EF8C  F008         	goto	i2u281_41
  2093   001114  EF8E  F008         	goto	i2u281_40
  2094   001118                     i2u281_41:
  2095   001118  EFA2  F008         	goto	i2l4897
  2096   00111C                     i2u281_40:
  2097   00111C  AA81               	btfss	129,5,c	;volatile
  2098   00111E  EF93  F008         	goto	i2u282_41
  2099   001122  EF95  F008         	goto	i2u282_40
  2100   001126                     i2u282_41:
  2101   001126  EFA2  F008         	goto	i2l4897
  2102   00112A                     i2u282_40:
  2103   00112A  0467               	decf	_RB5_flag^0,w,c	;volatile
  2104   00112C  A4D8               	btfss	status,2,c
  2105   00112E  EF9B  F008         	goto	i2u283_41
  2106   001132  EF9D  F008         	goto	i2u283_40
  2107   001136                     i2u283_41:
  2108   001136  EFA2  F008         	goto	i2l4897
  2109   00113A                     i2u283_40:
  2110   00113A                     
  2111                           ;MCAL_Layer/Interrupt/mcal_interrupt_manager.c: 57:             && (PORTBbits.RB5 == GPI
      +                          O_HIGH) && (RB5_flag == 1)){;MCAL_Layer/Interrupt/mcal_interrupt_manager.c: 58:         
      +                          RB5_flag = 0;
  2112   00113A  0E00               	movlw	0
  2113   00113C  6E67               	movwf	_RB5_flag^0,c	;volatile
  2114   00113E                     
  2115                           ;MCAL_Layer/Interrupt/mcal_interrupt_manager.c: 59:         RB5_ISR(0);
  2116   00113E  0E00               	movlw	0
  2117   001140  ECE0  F00C         	call	_RB5_ISR
  2118   001144                     i2l4897:
  2119                           
  2120                           ;MCAL_Layer/Interrupt/mcal_interrupt_manager.c: 61:     if((1 == INTCONbits.RBIE) && (1 
      +                          == INTCONbits.RBIF)
  2121   001144  A6F2               	btfss	242,3,c	;volatile
  2122   001146  EFA7  F008         	goto	i2u284_41
  2123   00114A  EFA9  F008         	goto	i2u284_40
  2124   00114E                     i2u284_41:
  2125   00114E  EFC4  F008         	goto	i2l4909
  2126   001152                     i2u284_40:
  2127   001152  A0F2               	btfss	242,0,c	;volatile
  2128   001154  EFAE  F008         	goto	i2u285_41
  2129   001158  EFB0  F008         	goto	i2u285_40
  2130   00115C                     i2u285_41:
  2131   00115C  EFC4  F008         	goto	i2l4909
  2132   001160                     i2u285_40:
  2133   001160  BA81               	btfsc	129,5,c	;volatile
  2134   001162  EFB5  F008         	goto	i2u286_41
  2135   001166  EFB7  F008         	goto	i2u286_40
  2136   00116A                     i2u286_41:
  2137   00116A  EFC4  F008         	goto	i2l4909
  2138   00116E                     i2u286_40:
  2139   00116E  5067               	movf	_RB5_flag^0,w,c	;volatile
  2140   001170  A4D8               	btfss	status,2,c
  2141   001172  EFBD  F008         	goto	i2u287_41
  2142   001176  EFBF  F008         	goto	i2u287_40
  2143   00117A                     i2u287_41:
  2144   00117A  EFC4  F008         	goto	i2l4909
  2145   00117E                     i2u287_40:
  2146   00117E                     
  2147                           ;MCAL_Layer/Interrupt/mcal_interrupt_manager.c: 62:             && (PORTBbits.RB5 == GPI
      +                          O_LOW)&& (RB5_flag == 0)){;MCAL_Layer/Interrupt/mcal_interrupt_manager.c: 63:         RB
      +                          5_flag = 1;
  2148   00117E  0E01               	movlw	1
  2149   001180  6E67               	movwf	_RB5_flag^0,c	;volatile
  2150   001182                     
  2151                           ;MCAL_Layer/Interrupt/mcal_interrupt_manager.c: 64:         RB5_ISR(1);
  2152   001182  0E01               	movlw	1
  2153   001184  ECE0  F00C         	call	_RB5_ISR
  2154   001188                     i2l4909:
  2155                           
  2156                           ;MCAL_Layer/Interrupt/mcal_interrupt_manager.c: 66:     if((1 == INTCONbits.RBIE) && (1 
      +                          == INTCONbits.RBIF)
  2157   001188  A6F2               	btfss	242,3,c	;volatile
  2158   00118A  EFC9  F008         	goto	i2u288_41
  2159   00118E  EFCB  F008         	goto	i2u288_40
  2160   001192                     i2u288_41:
  2161   001192  EFE6  F008         	goto	i2l4921
  2162   001196                     i2u288_40:
  2163   001196  A0F2               	btfss	242,0,c	;volatile
  2164   001198  EFD0  F008         	goto	i2u289_41
  2165   00119C  EFD2  F008         	goto	i2u289_40
  2166   0011A0                     i2u289_41:
  2167   0011A0  EFE6  F008         	goto	i2l4921
  2168   0011A4                     i2u289_40:
  2169   0011A4  AC81               	btfss	129,6,c	;volatile
  2170   0011A6  EFD7  F008         	goto	i2u290_41
  2171   0011AA  EFD9  F008         	goto	i2u290_40
  2172   0011AE                     i2u290_41:
  2173   0011AE  EFE6  F008         	goto	i2l4921
  2174   0011B2                     i2u290_40:
  2175   0011B2  0466               	decf	_RB6_flag^0,w,c	;volatile
  2176   0011B4  A4D8               	btfss	status,2,c
  2177   0011B6  EFDF  F008         	goto	i2u291_41
  2178   0011BA  EFE1  F008         	goto	i2u291_40
  2179   0011BE                     i2u291_41:
  2180   0011BE  EFE6  F008         	goto	i2l4921
  2181   0011C2                     i2u291_40:
  2182   0011C2                     
  2183                           ;MCAL_Layer/Interrupt/mcal_interrupt_manager.c: 67:             && (PORTBbits.RB6 == GPI
      +                          O_HIGH) && (RB6_flag == 1)){;MCAL_Layer/Interrupt/mcal_interrupt_manager.c: 68:         
      +                          RB6_flag = 0;
  2184   0011C2  0E00               	movlw	0
  2185   0011C4  6E66               	movwf	_RB6_flag^0,c	;volatile
  2186   0011C6                     
  2187                           ;MCAL_Layer/Interrupt/mcal_interrupt_manager.c: 69:         RB6_ISR(0);
  2188   0011C6  0E00               	movlw	0
  2189   0011C8  ECD3  F00C         	call	_RB6_ISR
  2190   0011CC                     i2l4921:
  2191                           
  2192                           ;MCAL_Layer/Interrupt/mcal_interrupt_manager.c: 71:     if((1 == INTCONbits.RBIE) && (1 
      +                          == INTCONbits.RBIF)
  2193   0011CC  A6F2               	btfss	242,3,c	;volatile
  2194   0011CE  EFEB  F008         	goto	i2u292_41
  2195   0011D2  EFED  F008         	goto	i2u292_40
  2196   0011D6                     i2u292_41:
  2197   0011D6  EF08  F009         	goto	i2l4933
  2198   0011DA                     i2u292_40:
  2199   0011DA  A0F2               	btfss	242,0,c	;volatile
  2200   0011DC  EFF2  F008         	goto	i2u293_41
  2201   0011E0  EFF4  F008         	goto	i2u293_40
  2202   0011E4                     i2u293_41:
  2203   0011E4  EF08  F009         	goto	i2l4933
  2204   0011E8                     i2u293_40:
  2205   0011E8  BC81               	btfsc	129,6,c	;volatile
  2206   0011EA  EFF9  F008         	goto	i2u294_41
  2207   0011EE  EFFB  F008         	goto	i2u294_40
  2208   0011F2                     i2u294_41:
  2209   0011F2  EF08  F009         	goto	i2l4933
  2210   0011F6                     i2u294_40:
  2211   0011F6  5066               	movf	_RB6_flag^0,w,c	;volatile
  2212   0011F8  A4D8               	btfss	status,2,c
  2213   0011FA  EF01  F009         	goto	i2u295_41
  2214   0011FE  EF03  F009         	goto	i2u295_40
  2215   001202                     i2u295_41:
  2216   001202  EF08  F009         	goto	i2l4933
  2217   001206                     i2u295_40:
  2218   001206                     
  2219                           ;MCAL_Layer/Interrupt/mcal_interrupt_manager.c: 72:             && (PORTBbits.RB6 == GPI
      +                          O_LOW) && (RB6_flag == 0)){;MCAL_Layer/Interrupt/mcal_interrupt_manager.c: 73:         R
      +                          B6_flag = 1;
  2220   001206  0E01               	movlw	1
  2221   001208  6E66               	movwf	_RB6_flag^0,c	;volatile
  2222   00120A                     
  2223                           ;MCAL_Layer/Interrupt/mcal_interrupt_manager.c: 74:         RB6_ISR(1);
  2224   00120A  0E01               	movlw	1
  2225   00120C  ECD3  F00C         	call	_RB6_ISR
  2226   001210                     i2l4933:
  2227                           
  2228                           ;MCAL_Layer/Interrupt/mcal_interrupt_manager.c: 76:     if((1 == INTCONbits.RBIE) && (1 
      +                          == INTCONbits.RBIF)
  2229   001210  A6F2               	btfss	242,3,c	;volatile
  2230   001212  EF0D  F009         	goto	i2u296_41
  2231   001216  EF0F  F009         	goto	i2u296_40
  2232   00121A                     i2u296_41:
  2233   00121A  EF2A  F009         	goto	i2l4945
  2234   00121E                     i2u296_40:
  2235   00121E  A0F2               	btfss	242,0,c	;volatile
  2236   001220  EF14  F009         	goto	i2u297_41
  2237   001224  EF16  F009         	goto	i2u297_40
  2238   001228                     i2u297_41:
  2239   001228  EF2A  F009         	goto	i2l4945
  2240   00122C                     i2u297_40:
  2241   00122C  AE81               	btfss	129,7,c	;volatile
  2242   00122E  EF1B  F009         	goto	i2u298_41
  2243   001232  EF1D  F009         	goto	i2u298_40
  2244   001236                     i2u298_41:
  2245   001236  EF2A  F009         	goto	i2l4945
  2246   00123A                     i2u298_40:
  2247   00123A  0465               	decf	_RB7_flag^0,w,c	;volatile
  2248   00123C  A4D8               	btfss	status,2,c
  2249   00123E  EF23  F009         	goto	i2u299_41
  2250   001242  EF25  F009         	goto	i2u299_40
  2251   001246                     i2u299_41:
  2252   001246  EF2A  F009         	goto	i2l4945
  2253   00124A                     i2u299_40:
  2254   00124A                     
  2255                           ;MCAL_Layer/Interrupt/mcal_interrupt_manager.c: 77:             && (PORTBbits.RB7 == GPI
      +                          O_HIGH) && (RB7_flag == 1)){;MCAL_Layer/Interrupt/mcal_interrupt_manager.c: 78:         
      +                          RB7_flag = 0;
  2256   00124A  0E00               	movlw	0
  2257   00124C  6E65               	movwf	_RB7_flag^0,c	;volatile
  2258   00124E                     
  2259                           ;MCAL_Layer/Interrupt/mcal_interrupt_manager.c: 79:         RB7_ISR(0);
  2260   00124E  0E00               	movlw	0
  2261   001250  ECC6  F00C         	call	_RB7_ISR
  2262   001254                     i2l4945:
  2263                           
  2264                           ;MCAL_Layer/Interrupt/mcal_interrupt_manager.c: 81:     if((1 == INTCONbits.RBIE) && (1 
      +                          == INTCONbits.RBIF)
  2265   001254  A6F2               	btfss	242,3,c	;volatile
  2266   001256  EF2F  F009         	goto	i2u300_41
  2267   00125A  EF31  F009         	goto	i2u300_40
  2268   00125E                     i2u300_41:
  2269   00125E  EF4C  F009         	goto	i2l4957
  2270   001262                     i2u300_40:
  2271   001262  A0F2               	btfss	242,0,c	;volatile
  2272   001264  EF36  F009         	goto	i2u301_41
  2273   001268  EF38  F009         	goto	i2u301_40
  2274   00126C                     i2u301_41:
  2275   00126C  EF4C  F009         	goto	i2l4957
  2276   001270                     i2u301_40:
  2277   001270  BE81               	btfsc	129,7,c	;volatile
  2278   001272  EF3D  F009         	goto	i2u302_41
  2279   001276  EF3F  F009         	goto	i2u302_40
  2280   00127A                     i2u302_41:
  2281   00127A  EF4C  F009         	goto	i2l4957
  2282   00127E                     i2u302_40:
  2283   00127E  5065               	movf	_RB7_flag^0,w,c	;volatile
  2284   001280  A4D8               	btfss	status,2,c
  2285   001282  EF45  F009         	goto	i2u303_41
  2286   001286  EF47  F009         	goto	i2u303_40
  2287   00128A                     i2u303_41:
  2288   00128A  EF4C  F009         	goto	i2l4957
  2289   00128E                     i2u303_40:
  2290   00128E                     
  2291                           ;MCAL_Layer/Interrupt/mcal_interrupt_manager.c: 82:             && (PORTBbits.RB7 == GPI
      +                          O_LOW) && (RB7_flag == 0)){;MCAL_Layer/Interrupt/mcal_interrupt_manager.c: 83:         R
      +                          B7_flag = 1;
  2292   00128E  0E01               	movlw	1
  2293   001290  6E65               	movwf	_RB7_flag^0,c	;volatile
  2294   001292                     
  2295                           ;MCAL_Layer/Interrupt/mcal_interrupt_manager.c: 84:         RB7_ISR(1);
  2296   001292  0E01               	movlw	1
  2297   001294  ECC6  F00C         	call	_RB7_ISR
  2298   001298                     i2l4957:
  2299                           
  2300                           ;MCAL_Layer/Interrupt/mcal_interrupt_manager.c: 89:     if((1 == PIE1bits.ADIE) && (1 ==
      +                           PIR1bits.ADIF)){
  2301   001298  AC9D               	btfss	157,6,c	;volatile
  2302   00129A  EF51  F009         	goto	i2u304_41
  2303   00129E  EF53  F009         	goto	i2u304_40
  2304   0012A2                     i2u304_41:
  2305   0012A2  EF5C  F009         	goto	i2l4963
  2306   0012A6                     i2u304_40:
  2307   0012A6  AC9E               	btfss	158,6,c	;volatile
  2308   0012A8  EF58  F009         	goto	i2u305_41
  2309   0012AC  EF5A  F009         	goto	i2u305_40
  2310   0012B0                     i2u305_41:
  2311   0012B0  EF5C  F009         	goto	i2l4963
  2312   0012B4                     i2u305_40:
  2313   0012B4                     
  2314                           ;MCAL_Layer/Interrupt/mcal_interrupt_manager.c: 90:         ADC_ISR();
  2315   0012B4  EC45  F00D         	call	_ADC_ISR	;wreg free
  2316   0012B8                     i2l4963:
  2317                           
  2318                           ;MCAL_Layer/Interrupt/mcal_interrupt_manager.c: 95:     if((1 == INTCONbits.TMR0IE) && (
      +                          1 == INTCONbits.TMR0IF)){
  2319   0012B8  AAF2               	btfss	242,5,c	;volatile
  2320   0012BA  EF61  F009         	goto	i2u306_41
  2321   0012BE  EF63  F009         	goto	i2u306_40
  2322   0012C2                     i2u306_41:
  2323   0012C2  EF6C  F009         	goto	i2l4969
  2324   0012C6                     i2u306_40:
  2325   0012C6  A4F2               	btfss	242,2,c	;volatile
  2326   0012C8  EF68  F009         	goto	i2u307_41
  2327   0012CC  EF6A  F009         	goto	i2u307_40
  2328   0012D0                     i2u307_41:
  2329   0012D0  EF6C  F009         	goto	i2l4969
  2330   0012D4                     i2u307_40:
  2331   0012D4                     
  2332                           ;MCAL_Layer/Interrupt/mcal_interrupt_manager.c: 96:         TMR0_ISR();
  2333   0012D4  EC24  F00D         	call	_TMR0_ISR	;wreg free
  2334   0012D8                     i2l4969:
  2335                           
  2336                           ;MCAL_Layer/Interrupt/mcal_interrupt_manager.c: 99:     if((1 == PIE1bits.TMR1IE) && (1 
      +                          == PIR1bits.TMR1IF)){
  2337   0012D8  A09D               	btfss	157,0,c	;volatile
  2338   0012DA  EF71  F009         	goto	i2u308_41
  2339   0012DE  EF73  F009         	goto	i2u308_40
  2340   0012E2                     i2u308_41:
  2341   0012E2  EF7C  F009         	goto	i2l4975
  2342   0012E6                     i2u308_40:
  2343   0012E6  A09E               	btfss	158,0,c	;volatile
  2344   0012E8  EF78  F009         	goto	i2u309_41
  2345   0012EC  EF7A  F009         	goto	i2u309_40
  2346   0012F0                     i2u309_41:
  2347   0012F0  EF7C  F009         	goto	i2l4975
  2348   0012F4                     i2u309_40:
  2349   0012F4                     
  2350                           ;MCAL_Layer/Interrupt/mcal_interrupt_manager.c: 100:         TMR1_ISR();
  2351   0012F4  EC1E  F00D         	call	_TMR1_ISR	;wreg free
  2352   0012F8                     i2l4975:
  2353                           
  2354                           ;MCAL_Layer/Interrupt/mcal_interrupt_manager.c: 103:     if((1 == PIE1bits.TMR2IE) && (1
      +                           == PIR1bits.TMR2IF)){
  2355   0012F8  A29D               	btfss	157,1,c	;volatile
  2356   0012FA  EF81  F009         	goto	i2u310_41
  2357   0012FE  EF83  F009         	goto	i2u310_40
  2358   001302                     i2u310_41:
  2359   001302  EF8C  F009         	goto	i2l4981
  2360   001306                     i2u310_40:
  2361   001306  A29E               	btfss	158,1,c	;volatile
  2362   001308  EF88  F009         	goto	i2u311_41
  2363   00130C  EF8A  F009         	goto	i2u311_40
  2364   001310                     i2u311_41:
  2365   001310  EF8C  F009         	goto	i2l4981
  2366   001314                     i2u311_40:
  2367   001314                     
  2368                           ;MCAL_Layer/Interrupt/mcal_interrupt_manager.c: 104:         TMR2_ISR();
  2369   001314  EC2F  F00D         	call	_TMR2_ISR	;wreg free
  2370   001318                     i2l4981:
  2371                           
  2372                           ;MCAL_Layer/Interrupt/mcal_interrupt_manager.c: 107:     if((1 == PIE2bits.TMR3IE) && (1
      +                           == PIR2bits.TMR3IF)){
  2373   001318  A2A0               	btfss	160,1,c	;volatile
  2374   00131A  EF91  F009         	goto	i2u312_41
  2375   00131E  EF93  F009         	goto	i2u312_40
  2376   001322                     i2u312_41:
  2377   001322  EF9C  F009         	goto	i2l4987
  2378   001326                     i2u312_40:
  2379   001326  A2A1               	btfss	161,1,c	;volatile
  2380   001328  EF98  F009         	goto	i2u313_41
  2381   00132C  EF9A  F009         	goto	i2u313_40
  2382   001330                     i2u313_41:
  2383   001330  EF9C  F009         	goto	i2l4987
  2384   001334                     i2u313_40:
  2385   001334                     
  2386                           ;MCAL_Layer/Interrupt/mcal_interrupt_manager.c: 108:         TMR3_ISR();
  2387   001334  EC18  F00D         	call	_TMR3_ISR	;wreg free
  2388   001338                     i2l4987:
  2389                           
  2390                           ;MCAL_Layer/Interrupt/mcal_interrupt_manager.c: 114:     if((1 == PIE1bits.CCP1IE) && (1
      +                           == PIR1bits.CCP1IF)){
  2391   001338  A49D               	btfss	157,2,c	;volatile
  2392   00133A  EFA1  F009         	goto	i2u314_41
  2393   00133E  EFA3  F009         	goto	i2u314_40
  2394   001342                     i2u314_41:
  2395   001342  EFAC  F009         	goto	i2l4993
  2396   001346                     i2u314_40:
  2397   001346  A49E               	btfss	158,2,c	;volatile
  2398   001348  EFA8  F009         	goto	i2u315_41
  2399   00134C  EFAA  F009         	goto	i2u315_40
  2400   001350                     i2u315_41:
  2401   001350  EFAC  F009         	goto	i2l4993
  2402   001354                     i2u315_40:
  2403   001354                     
  2404                           ;MCAL_Layer/Interrupt/mcal_interrupt_manager.c: 115:         CCP1_ISR();
  2405   001354  EC43  F00D         	call	_CCP1_ISR	;wreg free
  2406   001358                     i2l4993:
  2407                           
  2408                           ;MCAL_Layer/Interrupt/mcal_interrupt_manager.c: 118:     if((1 == PIE2bits.CCP2IE) && (1
      +                           == PIR2bits.CCP2IF)){
  2409   001358  A0A0               	btfss	160,0,c	;volatile
  2410   00135A  EFB1  F009         	goto	i2u316_41
  2411   00135E  EFB3  F009         	goto	i2u316_40
  2412   001362                     i2u316_41:
  2413   001362  EFBC  F009         	goto	i2l4999
  2414   001366                     i2u316_40:
  2415   001366  A0A1               	btfss	161,0,c	;volatile
  2416   001368  EFB8  F009         	goto	i2u317_41
  2417   00136C  EFBA  F009         	goto	i2u317_40
  2418   001370                     i2u317_41:
  2419   001370  EFBC  F009         	goto	i2l4999
  2420   001374                     i2u317_40:
  2421   001374                     
  2422                           ;MCAL_Layer/Interrupt/mcal_interrupt_manager.c: 119:         CCP2_ISR();
  2423   001374  EC41  F00D         	call	_CCP2_ISR	;wreg free
  2424   001378                     i2l4999:
  2425                           
  2426                           ;MCAL_Layer/Interrupt/mcal_interrupt_manager.c: 124:     if((1 == PIE1bits.TXIE) && (1 =
      +                          = PIR1bits.TXIF)){
  2427   001378  A89D               	btfss	157,4,c	;volatile
  2428   00137A  EFC1  F009         	goto	i2u318_41
  2429   00137E  EFC3  F009         	goto	i2u318_40
  2430   001382                     i2u318_41:
  2431   001382  EFCC  F009         	goto	i2l5005
  2432   001386                     i2u318_40:
  2433   001386  A89E               	btfss	158,4,c	;volatile
  2434   001388  EFC8  F009         	goto	i2u319_41
  2435   00138C  EFCA  F009         	goto	i2u319_40
  2436   001390                     i2u319_41:
  2437   001390  EFCC  F009         	goto	i2l5005
  2438   001394                     i2u319_40:
  2439   001394                     
  2440                           ;MCAL_Layer/Interrupt/mcal_interrupt_manager.c: 125:         EUSART_Tx_ISR();
  2441   001394  EC3F  F00D         	call	_EUSART_Tx_ISR	;wreg free
  2442   001398                     i2l5005:
  2443                           
  2444                           ;MCAL_Layer/Interrupt/mcal_interrupt_manager.c: 128:     if((1 == PIE1bits.RCIE) && (1 =
      +                          = PIR1bits.RCIF)){
  2445   001398  AA9D               	btfss	157,5,c	;volatile
  2446   00139A  EFD1  F009         	goto	i2u320_41
  2447   00139E  EFD3  F009         	goto	i2u320_40
  2448   0013A2                     i2u320_41:
  2449   0013A2  EFDC  F009         	goto	i2l5011
  2450   0013A6                     i2u320_40:
  2451   0013A6  AA9E               	btfss	158,5,c	;volatile
  2452   0013A8  EFD8  F009         	goto	i2u321_41
  2453   0013AC  EFDA  F009         	goto	i2u321_40
  2454   0013B0                     i2u321_41:
  2455   0013B0  EFDC  F009         	goto	i2l5011
  2456   0013B4                     i2u321_40:
  2457   0013B4                     
  2458                           ;MCAL_Layer/Interrupt/mcal_interrupt_manager.c: 129:         EUSART_Rx_ISR();
  2459   0013B4  EC48  F00D         	call	_EUSART_Rx_ISR	;wreg free
  2460   0013B8                     i2l5011:
  2461                           
  2462                           ;MCAL_Layer/Interrupt/mcal_interrupt_manager.c: 136:     if((1 == PIE1bits.SSPIE) && (1 
      +                          == PIR1bits.SSPIF)){
  2463   0013B8  A69D               	btfss	157,3,c	;volatile
  2464   0013BA  EFE1  F009         	goto	i2u322_41
  2465   0013BE  EFE3  F009         	goto	i2u322_40
  2466   0013C2                     i2u322_41:
  2467   0013C2  EFEC  F009         	goto	i2l5017
  2468   0013C6                     i2u322_40:
  2469   0013C6  A69E               	btfss	158,3,c	;volatile
  2470   0013C8  EFE8  F009         	goto	i2u323_41
  2471   0013CC  EFEA  F009         	goto	i2u323_40
  2472   0013D0                     i2u323_41:
  2473   0013D0  EFEC  F009         	goto	i2l5017
  2474   0013D4                     i2u323_40:
  2475   0013D4                     
  2476                           ;MCAL_Layer/Interrupt/mcal_interrupt_manager.c: 137:         MSSP_SPI_ISR();
  2477   0013D4  EC33  F00D         	call	_MSSP_SPI_ISR	;wreg free
  2478   0013D8                     i2l5017:
  2479                           
  2480                           ;MCAL_Layer/Interrupt/mcal_interrupt_manager.c: 140:     if((1 == PIE1bits.SSPIE) && (1 
      +                          == PIR1bits.SSPIF)){
  2481   0013D8  A69D               	btfss	157,3,c	;volatile
  2482   0013DA  EFF1  F009         	goto	i2u324_41
  2483   0013DE  EFF3  F009         	goto	i2u324_40
  2484   0013E2                     i2u324_41:
  2485   0013E2  EFFC  F009         	goto	i2l5023
  2486   0013E6                     i2u324_40:
  2487   0013E6  A69E               	btfss	158,3,c	;volatile
  2488   0013E8  EFF8  F009         	goto	i2u325_41
  2489   0013EC  EFFA  F009         	goto	i2u325_40
  2490   0013F0                     i2u325_41:
  2491   0013F0  EFFC  F009         	goto	i2l5023
  2492   0013F4                     i2u325_40:
  2493   0013F4                     
  2494                           ;MCAL_Layer/Interrupt/mcal_interrupt_manager.c: 141:         MSSP_I2C_ISR();
  2495   0013F4  EC35  F00D         	call	_MSSP_I2C_ISR	;wreg free
  2496   0013F8                     i2l5023:
  2497                           
  2498                           ;MCAL_Layer/Interrupt/mcal_interrupt_manager.c: 144:     if((1 == PIE2bits.BCLIE) && (1 
      +                          == PIR2bits.BCLIF)){
  2499   0013F8  A6A0               	btfss	160,3,c	;volatile
  2500   0013FA  EF01  F00A         	goto	i2u326_41
  2501   0013FE  EF03  F00A         	goto	i2u326_40
  2502   001402                     i2u326_41:
  2503   001402  EF0C  F00A         	goto	i2l1455
  2504   001406                     i2u326_40:
  2505   001406  A6A1               	btfss	161,3,c	;volatile
  2506   001408  EF08  F00A         	goto	i2u327_41
  2507   00140C  EF0A  F00A         	goto	i2u327_40
  2508   001410                     i2u327_41:
  2509   001410  EF0C  F00A         	goto	i2l1455
  2510   001414                     i2u327_40:
  2511   001414                     
  2512                           ;MCAL_Layer/Interrupt/mcal_interrupt_manager.c: 145:         MSSP_I2C_BC_ISR();
  2513   001414  EC37  F00D         	call	_MSSP_I2C_BC_ISR	;wreg free
  2514   001418                     i2l1455:
  2515   001418  927B               	bcf	int$flags,1,c	;clear compiler interrupt flag (level 2)
  2516   00141A  0011               	retfie		f
  2517   00141C                     __end_of_InterruptManagerHigh:
  2518                           	callstack 0
  2519                           
  2520 ;; *************** function _TMR3_ISR *****************
  2521 ;; Defined at:
  2522 ;;		line 162 in file "MCAL_Layer/Timer3/hal_timer3.c"
  2523 ;; Parameters:    Size  Location     Type
  2524 ;;		None
  2525 ;; Auto vars:     Size  Location     Type
  2526 ;;		None
  2527 ;; Return value:  Size  Location     Type
  2528 ;;                  1    wreg      void 
  2529 ;; Registers used:
  2530 ;;		wreg, status,2
  2531 ;; Tracked objects:
  2532 ;;		On entry : 0/0
  2533 ;;		On exit  : 0/0
  2534 ;;		Unchanged: 0/0
  2535 ;; Data sizes:     COMRAM   BANK0   BANK1   BANK2   BANK3   BANK4   BANK5   BANK6   BANK7   BANK8   BANK9  BANK10  BANK1
      +1  BANK12  BANK13  BANK14  BANK15
  2536 ;;      Params:         0       0       0       0       0       0       0       0       0       0       0       0       
      +0       0       0       0       0
  2537 ;;      Locals:         0       0       0       0       0       0       0       0       0       0       0       0       
      +0       0       0       0       0
  2538 ;;      Temps:          0       0       0       0       0       0       0       0       0       0       0       0       
      +0       0       0       0       0
  2539 ;;      Totals:         0       0       0       0       0       0       0       0       0       0       0       0       
      +0       0       0       0       0
  2540 ;;Total ram usage:        0 bytes
  2541 ;; Hardware stack levels used: 1
  2542 ;; This function calls:
  2543 ;;		Nothing
  2544 ;; This function is called by:
  2545 ;;		_InterruptManagerHigh
  2546 ;; This function uses a non-reentrant model
  2547 ;;
  2548                           
  2549                           	psect	text12
  2550   001A30                     __ptext12:
  2551                           	callstack 0
  2552   001A30                     _TMR3_ISR:
  2553                           	callstack 24
  2554   001A30                     
  2555                           ;MCAL_Layer/Timer3/hal_timer3.c: 163:     (PIR2bits.TMR3IF = 0);
  2556   001A30  92A1               	bcf	161,1,c	;volatile
  2557   001A32                     
  2558                           ;MCAL_Layer/Timer3/hal_timer3.c: 164:     TMR3H = (timer3_preload) >> 8;
  2559   001A32  5006               	movf	(_timer3_preload+1)^0,w,c	;volatile
  2560   001A34  6EB3               	movwf	179,c	;volatile
  2561   001A36                     
  2562                           ;MCAL_Layer/Timer3/hal_timer3.c: 165:     TMR3L = (uint8)(timer3_preload);
  2563   001A36  C005  FFB2         	movff	_timer3_preload,4018	;volatile
  2564   001A3A  0012               	return		;funcret
  2565   001A3C                     __end_of_TMR3_ISR:
  2566                           	callstack 0
  2567                           
  2568 ;; *************** function _TMR2_ISR *****************
  2569 ;; Defined at:
  2570 ;;		line 133 in file "MCAL_Layer/Timer2/hal_timer2.c"
  2571 ;; Parameters:    Size  Location     Type
  2572 ;;		None
  2573 ;; Auto vars:     Size  Location     Type
  2574 ;;		None
  2575 ;; Return value:  Size  Location     Type
  2576 ;;                  1    wreg      void 
  2577 ;; Registers used:
  2578 ;;		None
  2579 ;; Tracked objects:
  2580 ;;		On entry : 0/0
  2581 ;;		On exit  : 0/0
  2582 ;;		Unchanged: 0/0
  2583 ;; Data sizes:     COMRAM   BANK0   BANK1   BANK2   BANK3   BANK4   BANK5   BANK6   BANK7   BANK8   BANK9  BANK10  BANK1
      +1  BANK12  BANK13  BANK14  BANK15
  2584 ;;      Params:         0       0       0       0       0       0       0       0       0       0       0       0       
      +0       0       0       0       0
  2585 ;;      Locals:         0       0       0       0       0       0       0       0       0       0       0       0       
      +0       0       0       0       0
  2586 ;;      Temps:          0       0       0       0       0       0       0       0       0       0       0       0       
      +0       0       0       0       0
  2587 ;;      Totals:         0       0       0       0       0       0       0       0       0       0       0       0       
      +0       0       0       0       0
  2588 ;;Total ram usage:        0 bytes
  2589 ;; Hardware stack levels used: 1
  2590 ;; This function calls:
  2591 ;;		Nothing
  2592 ;; This function is called by:
  2593 ;;		_InterruptManagerHigh
  2594 ;; This function uses a non-reentrant model
  2595 ;;
  2596                           
  2597                           	psect	text13
  2598   001A5E                     __ptext13:
  2599                           	callstack 0
  2600   001A5E                     _TMR2_ISR:
  2601                           	callstack 24
  2602   001A5E                     
  2603                           ;MCAL_Layer/Timer2/hal_timer2.c: 134:     (PIR1bits.TMR2IF = 0);
  2604   001A5E  929E               	bcf	158,1,c	;volatile
  2605                           
  2606                           ;MCAL_Layer/Timer2/hal_timer2.c: 135:     TMR2 = timer2_preload;
  2607   001A60  C041  FFCC         	movff	_timer2_preload,4044	;volatile
  2608   001A64  0012               	return		;funcret
  2609   001A66                     __end_of_TMR2_ISR:
  2610                           	callstack 0
  2611                           
  2612 ;; *************** function _TMR1_ISR *****************
  2613 ;; Defined at:
  2614 ;;		line 161 in file "MCAL_Layer/Timer1/hal_timer1.c"
  2615 ;; Parameters:    Size  Location     Type
  2616 ;;		None
  2617 ;; Auto vars:     Size  Location     Type
  2618 ;;		None
  2619 ;; Return value:  Size  Location     Type
  2620 ;;                  1    wreg      void 
  2621 ;; Registers used:
  2622 ;;		wreg, status,2
  2623 ;; Tracked objects:
  2624 ;;		On entry : 0/0
  2625 ;;		On exit  : 0/0
  2626 ;;		Unchanged: 0/0
  2627 ;; Data sizes:     COMRAM   BANK0   BANK1   BANK2   BANK3   BANK4   BANK5   BANK6   BANK7   BANK8   BANK9  BANK10  BANK1
      +1  BANK12  BANK13  BANK14  BANK15
  2628 ;;      Params:         0       0       0       0       0       0       0       0       0       0       0       0       
      +0       0       0       0       0
  2629 ;;      Locals:         0       0       0       0       0       0       0       0       0       0       0       0       
      +0       0       0       0       0
  2630 ;;      Temps:          0       0       0       0       0       0       0       0       0       0       0       0       
      +0       0       0       0       0
  2631 ;;      Totals:         0       0       0       0       0       0       0       0       0       0       0       0       
      +0       0       0       0       0
  2632 ;;Total ram usage:        0 bytes
  2633 ;; Hardware stack levels used: 1
  2634 ;; This function calls:
  2635 ;;		Nothing
  2636 ;; This function is called by:
  2637 ;;		_InterruptManagerHigh
  2638 ;; This function uses a non-reentrant model
  2639 ;;
  2640                           
  2641                           	psect	text14
  2642   001A3C                     __ptext14:
  2643                           	callstack 0
  2644   001A3C                     _TMR1_ISR:
  2645                           	callstack 24
  2646   001A3C                     
  2647                           ;MCAL_Layer/Timer1/hal_timer1.c: 162:     (PIR1bits.TMR1IF = 0);
  2648   001A3C  909E               	bcf	158,0,c	;volatile
  2649   001A3E                     
  2650                           ;MCAL_Layer/Timer1/hal_timer1.c: 163:     TMR1H = (timer1_preload) >> 8;
  2651   001A3E  500C               	movf	(_timer1_preload+1)^0,w,c	;volatile
  2652   001A40  6ECF               	movwf	207,c	;volatile
  2653   001A42                     
  2654                           ;MCAL_Layer/Timer1/hal_timer1.c: 164:     TMR1L = (uint8)(timer1_preload);
  2655   001A42  C00B  FFCE         	movff	_timer1_preload,4046	;volatile
  2656   001A46  0012               	return		;funcret
  2657   001A48                     __end_of_TMR1_ISR:
  2658                           	callstack 0
  2659                           
  2660 ;; *************** function _TMR0_ISR *****************
  2661 ;; Defined at:
  2662 ;;		line 187 in file "MCAL_Layer/Timer0/hal_timer0.c"
  2663 ;; Parameters:    Size  Location     Type
  2664 ;;		None
  2665 ;; Auto vars:     Size  Location     Type
  2666 ;;		None
  2667 ;; Return value:  Size  Location     Type
  2668 ;;                  1    wreg      void 
  2669 ;; Registers used:
  2670 ;;		wreg, status,2
  2671 ;; Tracked objects:
  2672 ;;		On entry : 0/0
  2673 ;;		On exit  : 0/0
  2674 ;;		Unchanged: 0/0
  2675 ;; Data sizes:     COMRAM   BANK0   BANK1   BANK2   BANK3   BANK4   BANK5   BANK6   BANK7   BANK8   BANK9  BANK10  BANK1
      +1  BANK12  BANK13  BANK14  BANK15
  2676 ;;      Params:         0       0       0       0       0       0       0       0       0       0       0       0       
      +0       0       0       0       0
  2677 ;;      Locals:         0       0       0       0       0       0       0       0       0       0       0       0       
      +0       0       0       0       0
  2678 ;;      Temps:          0       0       0       0       0       0       0       0       0       0       0       0       
      +0       0       0       0       0
  2679 ;;      Totals:         0       0       0       0       0       0       0       0       0       0       0       0       
      +0       0       0       0       0
  2680 ;;Total ram usage:        0 bytes
  2681 ;; Hardware stack levels used: 1
  2682 ;; This function calls:
  2683 ;;		Nothing
  2684 ;; This function is called by:
  2685 ;;		_InterruptManagerHigh
  2686 ;; This function uses a non-reentrant model
  2687 ;;
  2688                           
  2689                           	psect	text15
  2690   001A48                     __ptext15:
  2691                           	callstack 0
  2692   001A48                     _TMR0_ISR:
  2693                           	callstack 24
  2694   001A48                     
  2695                           ;MCAL_Layer/Timer0/hal_timer0.c: 188:     (INTCONbits.TMR0IF = 0);
  2696   001A48  94F2               	bcf	242,2,c	;volatile
  2697   001A4A                     
  2698                           ;MCAL_Layer/Timer0/hal_timer0.c: 189:     TMR0H = (timer0_preload) >> 8;
  2699   001A4A  5010               	movf	(_timer0_preload+1)^0,w,c	;volatile
  2700   001A4C  6ED7               	movwf	215,c	;volatile
  2701   001A4E                     
  2702                           ;MCAL_Layer/Timer0/hal_timer0.c: 190:     TMR0L = (uint8)(timer0_preload);
  2703   001A4E  C00F  FFD6         	movff	_timer0_preload,4054	;volatile
  2704   001A52  0012               	return		;funcret
  2705   001A54                     __end_of_TMR0_ISR:
  2706                           	callstack 0
  2707                           
  2708 ;; *************** function _RB7_ISR *****************
  2709 ;; Defined at:
  2710 ;;		line 123 in file "MCAL_Layer/Interrupt/mcal_external_interrupt.c"
  2711 ;; Parameters:    Size  Location     Type
  2712 ;;  RB7_Source      1    wreg     unsigned char 
  2713 ;; Auto vars:     Size  Location     Type
  2714 ;;  RB7_Source      1    0[COMRAM] unsigned char 
  2715 ;; Return value:  Size  Location     Type
  2716 ;;                  1    wreg      void 
  2717 ;; Registers used:
  2718 ;;		wreg, status,2, status,0
  2719 ;; Tracked objects:
  2720 ;;		On entry : 0/0
  2721 ;;		On exit  : 0/0
  2722 ;;		Unchanged: 0/0
  2723 ;; Data sizes:     COMRAM   BANK0   BANK1   BANK2   BANK3   BANK4   BANK5   BANK6   BANK7   BANK8   BANK9  BANK10  BANK1
      +1  BANK12  BANK13  BANK14  BANK15
  2724 ;;      Params:         0       0       0       0       0       0       0       0       0       0       0       0       
      +0       0       0       0       0
  2725 ;;      Locals:         1       0       0       0       0       0       0       0       0       0       0       0       
      +0       0       0       0       0
  2726 ;;      Temps:          0       0       0       0       0       0       0       0       0       0       0       0       
      +0       0       0       0       0
  2727 ;;      Totals:         1       0       0       0       0       0       0       0       0       0       0       0       
      +0       0       0       0       0
  2728 ;;Total ram usage:        1 bytes
  2729 ;; Hardware stack levels used: 1
  2730 ;; This function calls:
  2731 ;;		Nothing
  2732 ;; This function is called by:
  2733 ;;		_InterruptManagerHigh
  2734 ;; This function uses a non-reentrant model
  2735 ;;
  2736                           
  2737                           	psect	text16
  2738   00198C                     __ptext16:
  2739                           	callstack 0
  2740   00198C                     _RB7_ISR:
  2741                           	callstack 24
  2742                           
  2743                           ;incstack = 0
  2744                           ;RB7_ISR@RB7_Source stored from wreg
  2745   00198C  6E6A               	movwf	RB7_ISR@RB7_Source^0,c
  2746   00198E                     
  2747                           ;MCAL_Layer/Interrupt/mcal_external_interrupt.c: 125:     (INTCONbits.RBIF = 0);
  2748   00198E  90F2               	bcf	242,0,c	;volatile
  2749   001990                     
  2750                           ;MCAL_Layer/Interrupt/mcal_external_interrupt.c: 128:     if(0 == RB7_Source){
  2751   001990  506A               	movf	RB7_ISR@RB7_Source^0,w,c
  2752   001992  A4D8               	btfss	status,2,c
  2753   001994  EFCE  F00C         	goto	i2u57_41
  2754   001998  EFD0  F00C         	goto	i2u57_40
  2755   00199C                     i2u57_41:
  2756   00199C  EFD2  F00C         	goto	i2l2993
  2757   0019A0                     i2u57_40:
  2758   0019A0  EFD2  F00C         	goto	i2l1236
  2759   0019A4                     i2l2993:
  2760   0019A4                     i2l1236:
  2761   0019A4  0012               	return		;funcret
  2762   0019A6                     __end_of_RB7_ISR:
  2763                           	callstack 0
  2764                           
  2765 ;; *************** function _RB6_ISR *****************
  2766 ;; Defined at:
  2767 ;;		line 107 in file "MCAL_Layer/Interrupt/mcal_external_interrupt.c"
  2768 ;; Parameters:    Size  Location     Type
  2769 ;;  RB6_Source      1    wreg     unsigned char 
  2770 ;; Auto vars:     Size  Location     Type
  2771 ;;  RB6_Source      1    0[COMRAM] unsigned char 
  2772 ;; Return value:  Size  Location     Type
  2773 ;;                  1    wreg      void 
  2774 ;; Registers used:
  2775 ;;		wreg, status,2, status,0
  2776 ;; Tracked objects:
  2777 ;;		On entry : 0/0
  2778 ;;		On exit  : 0/0
  2779 ;;		Unchanged: 0/0
  2780 ;; Data sizes:     COMRAM   BANK0   BANK1   BANK2   BANK3   BANK4   BANK5   BANK6   BANK7   BANK8   BANK9  BANK10  BANK1
      +1  BANK12  BANK13  BANK14  BANK15
  2781 ;;      Params:         0       0       0       0       0       0       0       0       0       0       0       0       
      +0       0       0       0       0
  2782 ;;      Locals:         1       0       0       0       0       0       0       0       0       0       0       0       
      +0       0       0       0       0
  2783 ;;      Temps:          0       0       0       0       0       0       0       0       0       0       0       0       
      +0       0       0       0       0
  2784 ;;      Totals:         1       0       0       0       0       0       0       0       0       0       0       0       
      +0       0       0       0       0
  2785 ;;Total ram usage:        1 bytes
  2786 ;; Hardware stack levels used: 1
  2787 ;; This function calls:
  2788 ;;		Nothing
  2789 ;; This function is called by:
  2790 ;;		_InterruptManagerHigh
  2791 ;; This function uses a non-reentrant model
  2792 ;;
  2793                           
  2794                           	psect	text17
  2795   0019A6                     __ptext17:
  2796                           	callstack 0
  2797   0019A6                     _RB6_ISR:
  2798                           	callstack 24
  2799                           
  2800                           ;incstack = 0
  2801                           ;RB6_ISR@RB6_Source stored from wreg
  2802   0019A6  6E6A               	movwf	RB6_ISR@RB6_Source^0,c
  2803   0019A8                     
  2804                           ;MCAL_Layer/Interrupt/mcal_external_interrupt.c: 109:     (INTCONbits.RBIF = 0);
  2805   0019A8  90F2               	bcf	242,0,c	;volatile
  2806   0019AA                     
  2807                           ;MCAL_Layer/Interrupt/mcal_external_interrupt.c: 112:     if(0 == RB6_Source){
  2808   0019AA  506A               	movf	RB6_ISR@RB6_Source^0,w,c
  2809   0019AC  A4D8               	btfss	status,2,c
  2810   0019AE  EFDB  F00C         	goto	i2u56_41
  2811   0019B2  EFDD  F00C         	goto	i2u56_40
  2812   0019B6                     i2u56_41:
  2813   0019B6  EFDF  F00C         	goto	i2l2983
  2814   0019BA                     i2u56_40:
  2815   0019BA  EFDF  F00C         	goto	i2l1228
  2816   0019BE                     i2l2983:
  2817   0019BE                     i2l1228:
  2818   0019BE  0012               	return		;funcret
  2819   0019C0                     __end_of_RB6_ISR:
  2820                           	callstack 0
  2821                           
  2822 ;; *************** function _RB5_ISR *****************
  2823 ;; Defined at:
  2824 ;;		line 91 in file "MCAL_Layer/Interrupt/mcal_external_interrupt.c"
  2825 ;; Parameters:    Size  Location     Type
  2826 ;;  RB5_Source      1    wreg     unsigned char 
  2827 ;; Auto vars:     Size  Location     Type
  2828 ;;  RB5_Source      1    0[COMRAM] unsigned char 
  2829 ;; Return value:  Size  Location     Type
  2830 ;;                  1    wreg      void 
  2831 ;; Registers used:
  2832 ;;		wreg, status,2, status,0
  2833 ;; Tracked objects:
  2834 ;;		On entry : 0/0
  2835 ;;		On exit  : 0/0
  2836 ;;		Unchanged: 0/0
  2837 ;; Data sizes:     COMRAM   BANK0   BANK1   BANK2   BANK3   BANK4   BANK5   BANK6   BANK7   BANK8   BANK9  BANK10  BANK1
      +1  BANK12  BANK13  BANK14  BANK15
  2838 ;;      Params:         0       0       0       0       0       0       0       0       0       0       0       0       
      +0       0       0       0       0
  2839 ;;      Locals:         1       0       0       0       0       0       0       0       0       0       0       0       
      +0       0       0       0       0
  2840 ;;      Temps:          0       0       0       0       0       0       0       0       0       0       0       0       
      +0       0       0       0       0
  2841 ;;      Totals:         1       0       0       0       0       0       0       0       0       0       0       0       
      +0       0       0       0       0
  2842 ;;Total ram usage:        1 bytes
  2843 ;; Hardware stack levels used: 1
  2844 ;; This function calls:
  2845 ;;		Nothing
  2846 ;; This function is called by:
  2847 ;;		_InterruptManagerHigh
  2848 ;; This function uses a non-reentrant model
  2849 ;;
  2850                           
  2851                           	psect	text18
  2852   0019C0                     __ptext18:
  2853                           	callstack 0
  2854   0019C0                     _RB5_ISR:
  2855                           	callstack 24
  2856                           
  2857                           ;incstack = 0
  2858                           ;RB5_ISR@RB5_Source stored from wreg
  2859   0019C0  6E6A               	movwf	RB5_ISR@RB5_Source^0,c
  2860   0019C2                     
  2861                           ;MCAL_Layer/Interrupt/mcal_external_interrupt.c: 93:     (INTCONbits.RBIF = 0);
  2862   0019C2  90F2               	bcf	242,0,c	;volatile
  2863   0019C4                     
  2864                           ;MCAL_Layer/Interrupt/mcal_external_interrupt.c: 96:     if(0 == RB5_Source){
  2865   0019C4  506A               	movf	RB5_ISR@RB5_Source^0,w,c
  2866   0019C6  A4D8               	btfss	status,2,c
  2867   0019C8  EFE8  F00C         	goto	i2u55_41
  2868   0019CC  EFEA  F00C         	goto	i2u55_40
  2869   0019D0                     i2u55_41:
  2870   0019D0  EFEC  F00C         	goto	i2l2973
  2871   0019D4                     i2u55_40:
  2872   0019D4  EFEC  F00C         	goto	i2l1220
  2873   0019D8                     i2l2973:
  2874   0019D8                     i2l1220:
  2875   0019D8  0012               	return		;funcret
  2876   0019DA                     __end_of_RB5_ISR:
  2877                           	callstack 0
  2878                           
  2879 ;; *************** function _RB4_ISR *****************
  2880 ;; Defined at:
  2881 ;;		line 75 in file "MCAL_Layer/Interrupt/mcal_external_interrupt.c"
  2882 ;; Parameters:    Size  Location     Type
  2883 ;;  RB4_Source      1    wreg     unsigned char 
  2884 ;; Auto vars:     Size  Location     Type
  2885 ;;  RB4_Source      1    0[COMRAM] unsigned char 
  2886 ;; Return value:  Size  Location     Type
  2887 ;;                  1    wreg      void 
  2888 ;; Registers used:
  2889 ;;		wreg, status,2, status,0
  2890 ;; Tracked objects:
  2891 ;;		On entry : 0/0
  2892 ;;		On exit  : 0/0
  2893 ;;		Unchanged: 0/0
  2894 ;; Data sizes:     COMRAM   BANK0   BANK1   BANK2   BANK3   BANK4   BANK5   BANK6   BANK7   BANK8   BANK9  BANK10  BANK1
      +1  BANK12  BANK13  BANK14  BANK15
  2895 ;;      Params:         0       0       0       0       0       0       0       0       0       0       0       0       
      +0       0       0       0       0
  2896 ;;      Locals:         1       0       0       0       0       0       0       0       0       0       0       0       
      +0       0       0       0       0
  2897 ;;      Temps:          0       0       0       0       0       0       0       0       0       0       0       0       
      +0       0       0       0       0
  2898 ;;      Totals:         1       0       0       0       0       0       0       0       0       0       0       0       
      +0       0       0       0       0
  2899 ;;Total ram usage:        1 bytes
  2900 ;; Hardware stack levels used: 1
  2901 ;; This function calls:
  2902 ;;		Nothing
  2903 ;; This function is called by:
  2904 ;;		_InterruptManagerHigh
  2905 ;; This function uses a non-reentrant model
  2906 ;;
  2907                           
  2908                           	psect	text19
  2909   0019DA                     __ptext19:
  2910                           	callstack 0
  2911   0019DA                     _RB4_ISR:
  2912                           	callstack 24
  2913                           
  2914                           ;incstack = 0
  2915                           ;RB4_ISR@RB4_Source stored from wreg
  2916   0019DA  6E6A               	movwf	RB4_ISR@RB4_Source^0,c
  2917   0019DC                     
  2918                           ;MCAL_Layer/Interrupt/mcal_external_interrupt.c: 77:     (INTCONbits.RBIF = 0);
  2919   0019DC  90F2               	bcf	242,0,c	;volatile
  2920   0019DE                     
  2921                           ;MCAL_Layer/Interrupt/mcal_external_interrupt.c: 80:     if(0 == RB4_Source){
  2922   0019DE  506A               	movf	RB4_ISR@RB4_Source^0,w,c
  2923   0019E0  A4D8               	btfss	status,2,c
  2924   0019E2  EFF5  F00C         	goto	i2u54_41
  2925   0019E6  EFF7  F00C         	goto	i2u54_40
  2926   0019EA                     i2u54_41:
  2927   0019EA  EFF9  F00C         	goto	i2l2963
  2928   0019EE                     i2u54_40:
  2929   0019EE  EFF9  F00C         	goto	i2l1212
  2930   0019F2                     i2l2963:
  2931   0019F2                     i2l1212:
  2932   0019F2  0012               	return		;funcret
  2933   0019F4                     __end_of_RB4_ISR:
  2934                           	callstack 0
  2935                           
  2936 ;; *************** function _MSSP_SPI_ISR *****************
  2937 ;; Defined at:
  2938 ;;		line 187 in file "MCAL_Layer/SPI/hal_spi.c"
  2939 ;; Parameters:    Size  Location     Type
  2940 ;;		None
  2941 ;; Auto vars:     Size  Location     Type
  2942 ;;		None
  2943 ;; Return value:  Size  Location     Type
  2944 ;;                  1    wreg      void 
  2945 ;; Registers used:
  2946 ;;		None
  2947 ;; Tracked objects:
  2948 ;;		On entry : 0/0
  2949 ;;		On exit  : 0/0
  2950 ;;		Unchanged: 0/0
  2951 ;; Data sizes:     COMRAM   BANK0   BANK1   BANK2   BANK3   BANK4   BANK5   BANK6   BANK7   BANK8   BANK9  BANK10  BANK1
      +1  BANK12  BANK13  BANK14  BANK15
  2952 ;;      Params:         0       0       0       0       0       0       0       0       0       0       0       0       
      +0       0       0       0       0
  2953 ;;      Locals:         0       0       0       0       0       0       0       0       0       0       0       0       
      +0       0       0       0       0
  2954 ;;      Temps:          0       0       0       0       0       0       0       0       0       0       0       0       
      +0       0       0       0       0
  2955 ;;      Totals:         0       0       0       0       0       0       0       0       0       0       0       0       
      +0       0       0       0       0
  2956 ;;Total ram usage:        0 bytes
  2957 ;; Hardware stack levels used: 1
  2958 ;; This function calls:
  2959 ;;		Nothing
  2960 ;; This function is called by:
  2961 ;;		_InterruptManagerHigh
  2962 ;; This function uses a non-reentrant model
  2963 ;;
  2964                           
  2965                           	psect	text20
  2966   001A66                     __ptext20:
  2967                           	callstack 0
  2968   001A66                     _MSSP_SPI_ISR:
  2969                           	callstack 24
  2970   001A66                     
  2971                           ;MCAL_Layer/SPI/hal_spi.c: 189:     (PIR1bits.SSPIF = 0);
  2972   001A66  969E               	bcf	158,3,c	;volatile
  2973   001A68  0012               	return		;funcret
  2974   001A6A                     __end_of_MSSP_SPI_ISR:
  2975                           	callstack 0
  2976                           
  2977 ;; *************** function _MSSP_I2C_ISR *****************
  2978 ;; Defined at:
  2979 ;;		line 319 in file "MCAL_Layer/I2C/hal_i2c.c"
  2980 ;; Parameters:    Size  Location     Type
  2981 ;;		None
  2982 ;; Auto vars:     Size  Location     Type
  2983 ;;		None
  2984 ;; Return value:  Size  Location     Type
  2985 ;;                  1    wreg      void 
  2986 ;; Registers used:
  2987 ;;		None
  2988 ;; Tracked objects:
  2989 ;;		On entry : 0/0
  2990 ;;		On exit  : 0/0
  2991 ;;		Unchanged: 0/0
  2992 ;; Data sizes:     COMRAM   BANK0   BANK1   BANK2   BANK3   BANK4   BANK5   BANK6   BANK7   BANK8   BANK9  BANK10  BANK1
      +1  BANK12  BANK13  BANK14  BANK15
  2993 ;;      Params:         0       0       0       0       0       0       0       0       0       0       0       0       
      +0       0       0       0       0
  2994 ;;      Locals:         0       0       0       0       0       0       0       0       0       0       0       0       
      +0       0       0       0       0
  2995 ;;      Temps:          0       0       0       0       0       0       0       0       0       0       0       0       
      +0       0       0       0       0
  2996 ;;      Totals:         0       0       0       0       0       0       0       0       0       0       0       0       
      +0       0       0       0       0
  2997 ;;Total ram usage:        0 bytes
  2998 ;; Hardware stack levels used: 1
  2999 ;; This function calls:
  3000 ;;		Nothing
  3001 ;; This function is called by:
  3002 ;;		_InterruptManagerHigh
  3003 ;; This function uses a non-reentrant model
  3004 ;;
  3005                           
  3006                           	psect	text21
  3007   001A6A                     __ptext21:
  3008                           	callstack 0
  3009   001A6A                     _MSSP_I2C_ISR:
  3010                           	callstack 24
  3011   001A6A                     
  3012                           ;MCAL_Layer/I2C/hal_i2c.c: 321:     (PIR1bits.SSPIF = 0);
  3013   001A6A  969E               	bcf	158,3,c	;volatile
  3014   001A6C  0012               	return		;funcret
  3015   001A6E                     __end_of_MSSP_I2C_ISR:
  3016                           	callstack 0
  3017                           
  3018 ;; *************** function _MSSP_I2C_BC_ISR *****************
  3019 ;; Defined at:
  3020 ;;		line 328 in file "MCAL_Layer/I2C/hal_i2c.c"
  3021 ;; Parameters:    Size  Location     Type
  3022 ;;		None
  3023 ;; Auto vars:     Size  Location     Type
  3024 ;;		None
  3025 ;; Return value:  Size  Location     Type
  3026 ;;                  1    wreg      void 
  3027 ;; Registers used:
  3028 ;;		None
  3029 ;; Tracked objects:
  3030 ;;		On entry : 0/0
  3031 ;;		On exit  : 0/0
  3032 ;;		Unchanged: 0/0
  3033 ;; Data sizes:     COMRAM   BANK0   BANK1   BANK2   BANK3   BANK4   BANK5   BANK6   BANK7   BANK8   BANK9  BANK10  BANK1
      +1  BANK12  BANK13  BANK14  BANK15
  3034 ;;      Params:         0       0       0       0       0       0       0       0       0       0       0       0       
      +0       0       0       0       0
  3035 ;;      Locals:         0       0       0       0       0       0       0       0       0       0       0       0       
      +0       0       0       0       0
  3036 ;;      Temps:          0       0       0       0       0       0       0       0       0       0       0       0       
      +0       0       0       0       0
  3037 ;;      Totals:         0       0       0       0       0       0       0       0       0       0       0       0       
      +0       0       0       0       0
  3038 ;;Total ram usage:        0 bytes
  3039 ;; Hardware stack levels used: 1
  3040 ;; This function calls:
  3041 ;;		Nothing
  3042 ;; This function is called by:
  3043 ;;		_InterruptManagerHigh
  3044 ;; This function uses a non-reentrant model
  3045 ;;
  3046                           
  3047                           	psect	text22
  3048   001A6E                     __ptext22:
  3049                           	callstack 0
  3050   001A6E                     _MSSP_I2C_BC_ISR:
  3051                           	callstack 24
  3052   001A6E                     
  3053                           ;MCAL_Layer/I2C/hal_i2c.c: 330:     (PIR2bits.BCLIF = 0);
  3054   001A6E  96A1               	bcf	161,3,c	;volatile
  3055   001A70  0012               	return		;funcret
  3056   001A72                     __end_of_MSSP_I2C_BC_ISR:
  3057                           	callstack 0
  3058                           
  3059 ;; *************** function _INT2_ISR *****************
  3060 ;; Defined at:
  3061 ;;		line 64 in file "MCAL_Layer/Interrupt/mcal_external_interrupt.c"
  3062 ;; Parameters:    Size  Location     Type
  3063 ;;		None
  3064 ;; Auto vars:     Size  Location     Type
  3065 ;;		None
  3066 ;; Return value:  Size  Location     Type
  3067 ;;                  1    wreg      void 
  3068 ;; Registers used:
  3069 ;;		None
  3070 ;; Tracked objects:
  3071 ;;		On entry : 0/0
  3072 ;;		On exit  : 0/0
  3073 ;;		Unchanged: 0/0
  3074 ;; Data sizes:     COMRAM   BANK0   BANK1   BANK2   BANK3   BANK4   BANK5   BANK6   BANK7   BANK8   BANK9  BANK10  BANK1
      +1  BANK12  BANK13  BANK14  BANK15
  3075 ;;      Params:         0       0       0       0       0       0       0       0       0       0       0       0       
      +0       0       0       0       0
  3076 ;;      Locals:         0       0       0       0       0       0       0       0       0       0       0       0       
      +0       0       0       0       0
  3077 ;;      Temps:          0       0       0       0       0       0       0       0       0       0       0       0       
      +0       0       0       0       0
  3078 ;;      Totals:         0       0       0       0       0       0       0       0       0       0       0       0       
      +0       0       0       0       0
  3079 ;;Total ram usage:        0 bytes
  3080 ;; Hardware stack levels used: 1
  3081 ;; This function calls:
  3082 ;;		Nothing
  3083 ;; This function is called by:
  3084 ;;		_InterruptManagerHigh
  3085 ;; This function uses a non-reentrant model
  3086 ;;
  3087                           
  3088                           	psect	text23
  3089   001A72                     __ptext23:
  3090                           	callstack 0
  3091   001A72                     _INT2_ISR:
  3092                           	callstack 24
  3093   001A72                     
  3094                           ;MCAL_Layer/Interrupt/mcal_external_interrupt.c: 66:     (INTCON3bits.INT2IF = 0);
  3095   001A72  92F0               	bcf	240,1,c	;volatile
  3096   001A74  0012               	return		;funcret
  3097   001A76                     __end_of_INT2_ISR:
  3098                           	callstack 0
  3099                           
  3100 ;; *************** function _INT1_ISR *****************
  3101 ;; Defined at:
  3102 ;;		line 54 in file "MCAL_Layer/Interrupt/mcal_external_interrupt.c"
  3103 ;; Parameters:    Size  Location     Type
  3104 ;;		None
  3105 ;; Auto vars:     Size  Location     Type
  3106 ;;		None
  3107 ;; Return value:  Size  Location     Type
  3108 ;;                  1    wreg      void 
  3109 ;; Registers used:
  3110 ;;		None
  3111 ;; Tracked objects:
  3112 ;;		On entry : 0/0
  3113 ;;		On exit  : 0/0
  3114 ;;		Unchanged: 0/0
  3115 ;; Data sizes:     COMRAM   BANK0   BANK1   BANK2   BANK3   BANK4   BANK5   BANK6   BANK7   BANK8   BANK9  BANK10  BANK1
      +1  BANK12  BANK13  BANK14  BANK15
  3116 ;;      Params:         0       0       0       0       0       0       0       0       0       0       0       0       
      +0       0       0       0       0
  3117 ;;      Locals:         0       0       0       0       0       0       0       0       0       0       0       0       
      +0       0       0       0       0
  3118 ;;      Temps:          0       0       0       0       0       0       0       0       0       0       0       0       
      +0       0       0       0       0
  3119 ;;      Totals:         0       0       0       0       0       0       0       0       0       0       0       0       
      +0       0       0       0       0
  3120 ;;Total ram usage:        0 bytes
  3121 ;; Hardware stack levels used: 1
  3122 ;; This function calls:
  3123 ;;		Nothing
  3124 ;; This function is called by:
  3125 ;;		_InterruptManagerHigh
  3126 ;; This function uses a non-reentrant model
  3127 ;;
  3128                           
  3129                           	psect	text24
  3130   001A76                     __ptext24:
  3131                           	callstack 0
  3132   001A76                     _INT1_ISR:
  3133                           	callstack 24
  3134   001A76                     
  3135                           ;MCAL_Layer/Interrupt/mcal_external_interrupt.c: 56:     (INTCON3bits.INT1IF = 0);
  3136   001A76  90F0               	bcf	240,0,c	;volatile
  3137   001A78  0012               	return		;funcret
  3138   001A7A                     __end_of_INT1_ISR:
  3139                           	callstack 0
  3140                           
  3141 ;; *************** function _INT0_ISR *****************
  3142 ;; Defined at:
  3143 ;;		line 44 in file "MCAL_Layer/Interrupt/mcal_external_interrupt.c"
  3144 ;; Parameters:    Size  Location     Type
  3145 ;;		None
  3146 ;; Auto vars:     Size  Location     Type
  3147 ;;		None
  3148 ;; Return value:  Size  Location     Type
  3149 ;;                  1    wreg      void 
  3150 ;; Registers used:
  3151 ;;		None
  3152 ;; Tracked objects:
  3153 ;;		On entry : 0/0
  3154 ;;		On exit  : 0/0
  3155 ;;		Unchanged: 0/0
  3156 ;; Data sizes:     COMRAM   BANK0   BANK1   BANK2   BANK3   BANK4   BANK5   BANK6   BANK7   BANK8   BANK9  BANK10  BANK1
      +1  BANK12  BANK13  BANK14  BANK15
  3157 ;;      Params:         0       0       0       0       0       0       0       0       0       0       0       0       
      +0       0       0       0       0
  3158 ;;      Locals:         0       0       0       0       0       0       0       0       0       0       0       0       
      +0       0       0       0       0
  3159 ;;      Temps:          0       0       0       0       0       0       0       0       0       0       0       0       
      +0       0       0       0       0
  3160 ;;      Totals:         0       0       0       0       0       0       0       0       0       0       0       0       
      +0       0       0       0       0
  3161 ;;Total ram usage:        0 bytes
  3162 ;; Hardware stack levels used: 1
  3163 ;; This function calls:
  3164 ;;		Nothing
  3165 ;; This function is called by:
  3166 ;;		_InterruptManagerHigh
  3167 ;; This function uses a non-reentrant model
  3168 ;;
  3169                           
  3170                           	psect	text25
  3171   001A7A                     __ptext25:
  3172                           	callstack 0
  3173   001A7A                     _INT0_ISR:
  3174                           	callstack 24
  3175   001A7A                     
  3176                           ;MCAL_Layer/Interrupt/mcal_external_interrupt.c: 46:     (INTCONbits.INT0IF = 0);
  3177   001A7A  92F2               	bcf	242,1,c	;volatile
  3178   001A7C  0012               	return		;funcret
  3179   001A7E                     __end_of_INT0_ISR:
  3180                           	callstack 0
  3181                           
  3182 ;; *************** function _EUSART_Tx_ISR *****************
  3183 ;; Defined at:
  3184 ;;		line 398 in file "MCAL_Layer/EUSART/hal_eusart.c"
  3185 ;; Parameters:    Size  Location     Type
  3186 ;;		None
  3187 ;; Auto vars:     Size  Location     Type
  3188 ;;		None
  3189 ;; Return value:  Size  Location     Type
  3190 ;;                  1    wreg      void 
  3191 ;; Registers used:
  3192 ;;		None
  3193 ;; Tracked objects:
  3194 ;;		On entry : 0/0
  3195 ;;		On exit  : 0/0
  3196 ;;		Unchanged: 0/0
  3197 ;; Data sizes:     COMRAM   BANK0   BANK1   BANK2   BANK3   BANK4   BANK5   BANK6   BANK7   BANK8   BANK9  BANK10  BANK1
      +1  BANK12  BANK13  BANK14  BANK15
  3198 ;;      Params:         0       0       0       0       0       0       0       0       0       0       0       0       
      +0       0       0       0       0
  3199 ;;      Locals:         0       0       0       0       0       0       0       0       0       0       0       0       
      +0       0       0       0       0
  3200 ;;      Temps:          0       0       0       0       0       0       0       0       0       0       0       0       
      +0       0       0       0       0
  3201 ;;      Totals:         0       0       0       0       0       0       0       0       0       0       0       0       
      +0       0       0       0       0
  3202 ;;Total ram usage:        0 bytes
  3203 ;; Hardware stack levels used: 1
  3204 ;; This function calls:
  3205 ;;		Nothing
  3206 ;; This function is called by:
  3207 ;;		_InterruptManagerHigh
  3208 ;; This function uses a non-reentrant model
  3209 ;;
  3210                           
  3211                           	psect	text26
  3212   001A7E                     __ptext26:
  3213                           	callstack 0
  3214   001A7E                     _EUSART_Tx_ISR:
  3215                           	callstack 24
  3216   001A7E                     
  3217                           ;MCAL_Layer/EUSART/hal_eusart.c: 399:     (PIE1bits.TXIE = 0);
  3218   001A7E  989D               	bcf	157,4,c	;volatile
  3219   001A80  0012               	return		;funcret
  3220   001A82                     __end_of_EUSART_Tx_ISR:
  3221                           	callstack 0
  3222                           
  3223 ;; *************** function _EUSART_Rx_ISR *****************
  3224 ;; Defined at:
  3225 ;;		line 404 in file "MCAL_Layer/EUSART/hal_eusart.c"
  3226 ;; Parameters:    Size  Location     Type
  3227 ;;		None
  3228 ;; Auto vars:     Size  Location     Type
  3229 ;;		None
  3230 ;; Return value:  Size  Location     Type
  3231 ;;                  1    wreg      void 
  3232 ;; Registers used:
  3233 ;;		wreg, status,2, status,0
  3234 ;; Tracked objects:
  3235 ;;		On entry : 0/0
  3236 ;;		On exit  : 0/0
  3237 ;;		Unchanged: 0/0
  3238 ;; Data sizes:     COMRAM   BANK0   BANK1   BANK2   BANK3   BANK4   BANK5   BANK6   BANK7   BANK8   BANK9  BANK10  BANK1
      +1  BANK12  BANK13  BANK14  BANK15
  3239 ;;      Params:         0       0       0       0       0       0       0       0       0       0       0       0       
      +0       0       0       0       0
  3240 ;;      Locals:         0       0       0       0       0       0       0       0       0       0       0       0       
      +0       0       0       0       0
  3241 ;;      Temps:          0       0       0       0       0       0       0       0       0       0       0       0       
      +0       0       0       0       0
  3242 ;;      Totals:         0       0       0       0       0       0       0       0       0       0       0       0       
      +0       0       0       0       0
  3243 ;;Total ram usage:        0 bytes
  3244 ;; Hardware stack levels used: 1
  3245 ;; This function calls:
  3246 ;;		Nothing
  3247 ;; This function is called by:
  3248 ;;		_InterruptManagerHigh
  3249 ;; This function uses a non-reentrant model
  3250 ;;
  3251                           
  3252                           	psect	text27
  3253   001A90                     __ptext27:
  3254                           	callstack 0
  3255   001A90                     _EUSART_Rx_ISR:
  3256                           	callstack 24
  3257   001A90  0012               	return		;funcret
  3258   001A92                     __end_of_EUSART_Rx_ISR:
  3259                           	callstack 0
  3260                           
  3261 ;; *************** function _CCP2_ISR *****************
  3262 ;; Defined at:
  3263 ;;		line 497 in file "MCAL_Layer/CCP/hal_ccp.c"
  3264 ;; Parameters:    Size  Location     Type
  3265 ;;		None
  3266 ;; Auto vars:     Size  Location     Type
  3267 ;;		None
  3268 ;; Return value:  Size  Location     Type
  3269 ;;                  1    wreg      void 
  3270 ;; Registers used:
  3271 ;;		None
  3272 ;; Tracked objects:
  3273 ;;		On entry : 0/0
  3274 ;;		On exit  : 0/0
  3275 ;;		Unchanged: 0/0
  3276 ;; Data sizes:     COMRAM   BANK0   BANK1   BANK2   BANK3   BANK4   BANK5   BANK6   BANK7   BANK8   BANK9  BANK10  BANK1
      +1  BANK12  BANK13  BANK14  BANK15
  3277 ;;      Params:         0       0       0       0       0       0       0       0       0       0       0       0       
      +0       0       0       0       0
  3278 ;;      Locals:         0       0       0       0       0       0       0       0       0       0       0       0       
      +0       0       0       0       0
  3279 ;;      Temps:          0       0       0       0       0       0       0       0       0       0       0       0       
      +0       0       0       0       0
  3280 ;;      Totals:         0       0       0       0       0       0       0       0       0       0       0       0       
      +0       0       0       0       0
  3281 ;;Total ram usage:        0 bytes
  3282 ;; Hardware stack levels used: 1
  3283 ;; This function calls:
  3284 ;;		Nothing
  3285 ;; This function is called by:
  3286 ;;		_InterruptManagerHigh
  3287 ;; This function uses a non-reentrant model
  3288 ;;
  3289                           
  3290                           	psect	text28
  3291   001A82                     __ptext28:
  3292                           	callstack 0
  3293   001A82                     _CCP2_ISR:
  3294                           	callstack 24
  3295   001A82                     
  3296                           ;MCAL_Layer/CCP/hal_ccp.c: 498:     (PIR2bits.CCP2IF = 0);
  3297   001A82  90A1               	bcf	161,0,c	;volatile
  3298   001A84  0012               	return		;funcret
  3299   001A86                     __end_of_CCP2_ISR:
  3300                           	callstack 0
  3301                           
  3302 ;; *************** function _CCP1_ISR *****************
  3303 ;; Defined at:
  3304 ;;		line 489 in file "MCAL_Layer/CCP/hal_ccp.c"
  3305 ;; Parameters:    Size  Location     Type
  3306 ;;		None
  3307 ;; Auto vars:     Size  Location     Type
  3308 ;;		None
  3309 ;; Return value:  Size  Location     Type
  3310 ;;                  1    wreg      void 
  3311 ;; Registers used:
  3312 ;;		None
  3313 ;; Tracked objects:
  3314 ;;		On entry : 0/0
  3315 ;;		On exit  : 0/0
  3316 ;;		Unchanged: 0/0
  3317 ;; Data sizes:     COMRAM   BANK0   BANK1   BANK2   BANK3   BANK4   BANK5   BANK6   BANK7   BANK8   BANK9  BANK10  BANK1
      +1  BANK12  BANK13  BANK14  BANK15
  3318 ;;      Params:         0       0       0       0       0       0       0       0       0       0       0       0       
      +0       0       0       0       0
  3319 ;;      Locals:         0       0       0       0       0       0       0       0       0       0       0       0       
      +0       0       0       0       0
  3320 ;;      Temps:          0       0       0       0       0       0       0       0       0       0       0       0       
      +0       0       0       0       0
  3321 ;;      Totals:         0       0       0       0       0       0       0       0       0       0       0       0       
      +0       0       0       0       0
  3322 ;;Total ram usage:        0 bytes
  3323 ;; Hardware stack levels used: 1
  3324 ;; This function calls:
  3325 ;;		Nothing
  3326 ;; This function is called by:
  3327 ;;		_InterruptManagerHigh
  3328 ;; This function uses a non-reentrant model
  3329 ;;
  3330                           
  3331                           	psect	text29
  3332   001A86                     __ptext29:
  3333                           	callstack 0
  3334   001A86                     _CCP1_ISR:
  3335                           	callstack 24
  3336   001A86                     
  3337                           ;MCAL_Layer/CCP/hal_ccp.c: 490:     (PIR1bits.CCP1IF = 0);
  3338   001A86  949E               	bcf	158,2,c	;volatile
  3339   001A88  0012               	return		;funcret
  3340   001A8A                     __end_of_CCP1_ISR:
  3341                           	callstack 0
  3342                           
  3343 ;; *************** function _ADC_ISR *****************
  3344 ;; Defined at:
  3345 ;;		line 266 in file "MCAL_Layer/ADC/hal_adc.c"
  3346 ;; Parameters:    Size  Location     Type
  3347 ;;		None
  3348 ;; Auto vars:     Size  Location     Type
  3349 ;;		None
  3350 ;; Return value:  Size  Location     Type
  3351 ;;                  1    wreg      void 
  3352 ;; Registers used:
  3353 ;;		None
  3354 ;; Tracked objects:
  3355 ;;		On entry : 0/0
  3356 ;;		On exit  : 0/0
  3357 ;;		Unchanged: 0/0
  3358 ;; Data sizes:     COMRAM   BANK0   BANK1   BANK2   BANK3   BANK4   BANK5   BANK6   BANK7   BANK8   BANK9  BANK10  BANK1
      +1  BANK12  BANK13  BANK14  BANK15
  3359 ;;      Params:         0       0       0       0       0       0       0       0       0       0       0       0       
      +0       0       0       0       0
  3360 ;;      Locals:         0       0       0       0       0       0       0       0       0       0       0       0       
      +0       0       0       0       0
  3361 ;;      Temps:          0       0       0       0       0       0       0       0       0       0       0       0       
      +0       0       0       0       0
  3362 ;;      Totals:         0       0       0       0       0       0       0       0       0       0       0       0       
      +0       0       0       0       0
  3363 ;;Total ram usage:        0 bytes
  3364 ;; Hardware stack levels used: 1
  3365 ;; This function calls:
  3366 ;;		Nothing
  3367 ;; This function is called by:
  3368 ;;		_InterruptManagerHigh
  3369 ;; This function uses a non-reentrant model
  3370 ;;
  3371                           
  3372                           	psect	text30
  3373   001A8A                     __ptext30:
  3374                           	callstack 0
  3375   001A8A                     _ADC_ISR:
  3376                           	callstack 24
  3377   001A8A                     
  3378                           ;MCAL_Layer/ADC/hal_adc.c: 267:     (PIR1bits.ADIF = 0);
  3379   001A8A  9C9E               	bcf	158,6,c	;volatile
  3380   001A8C  0012               	return		;funcret
  3381   001A8E                     __end_of_ADC_ISR:
  3382                           	callstack 0
  3383                           
  3384                           	psect	rparam
  3385   000000                     
  3386                           	psect	temp
  3387   00007B                     btemp:
  3388                           	callstack 0
  3389   00007B                     	ds	1
  3390   000000                     int$flags	set	btemp
  3391   000000                     wtemp8	set	btemp+1
  3392   000000                     ttemp5	set	btemp+1
  3393   000000                     ttemp6	set	btemp+4
  3394   000000                     ttemp7	set	btemp+8
  3395                           
  3396                           	psect	config
  3397                           
  3398                           ; Padding undefined space
  3399   300000                     	org	3145728
  3400   300000  FF                 	db	255
  3401                           
  3402                           ;Config register CONFIG1H @ 0x300001
  3403                           ;	Oscillator Selection bits
  3404                           ;	OSC = HS, HS oscillator
  3405                           ;	Fail-Safe Clock Monitor Enable bit
  3406                           ;	FCMEN = OFF, Fail-Safe Clock Monitor disabled
  3407                           ;	Internal/External Oscillator Switchover bit
  3408                           ;	IESO = OFF, Oscillator Switchover mode disabled
  3409   300001                     	org	3145729
  3410   300001  02                 	db	2
  3411                           
  3412                           ;Config register CONFIG2L @ 0x300002
  3413                           ;	Power-up Timer Enable bit
  3414                           ;	PWRT = OFF, PWRT disabled
  3415                           ;	Brown-out Reset Enable bits
  3416                           ;	BOREN = OFF, Brown-out Reset disabled in hardware and software
  3417                           ;	Brown Out Reset Voltage bits
  3418                           ;	BORV = 1, 
  3419   300002                     	org	3145730
  3420   300002  09                 	db	9
  3421                           
  3422                           ;Config register CONFIG2H @ 0x300003
  3423                           ;	Watchdog Timer Enable bit
  3424                           ;	WDT = OFF, WDT disabled (control is placed on the SWDTEN bit)
  3425                           ;	Watchdog Timer Postscale Select bits
  3426                           ;	WDTPS = 32768, 1:32768
  3427   300003                     	org	3145731
  3428   300003  1E                 	db	30
  3429                           
  3430                           ; Padding undefined space
  3431   300004                     	org	3145732
  3432   300004  FF                 	db	255
  3433                           
  3434                           ;Config register CONFIG3H @ 0x300005
  3435                           ;	CCP2 MUX bit
  3436                           ;	CCP2MX = PORTC, CCP2 input/output is multiplexed with RC1
  3437                           ;	PORTB A/D Enable bit
  3438                           ;	PBADEN = OFF, PORTB<4:0> pins are configured as digital I/O on Reset
  3439                           ;	Low-Power Timer1 Oscillator Enable bit
  3440                           ;	LPT1OSC = OFF, Timer1 configured for higher power operation
  3441                           ;	MCLR Pin Enable bit
  3442                           ;	MCLRE = ON, MCLR pin enabled; RE3 input pin disabled
  3443   300005                     	org	3145733
  3444   300005  81                 	db	129
  3445                           
  3446                           ;Config register CONFIG4L @ 0x300006
  3447                           ;	Stack Full/Underflow Reset Enable bit
  3448                           ;	STVREN = ON, Stack full/underflow will cause Reset
  3449                           ;	Single-Supply ICSP Enable bit
  3450                           ;	LVP = OFF, Single-Supply ICSP disabled
  3451                           ;	Extended Instruction Set Enable bit
  3452                           ;	XINST = OFF, Instruction set extension and Indexed Addressing mode disabled (Legacy mo
      +                          de)
  3453                           ;	Background Debugger Enable bit
  3454                           ;	DEBUG = 0x1, unprogrammed default
  3455   300006                     	org	3145734
  3456   300006  81                 	db	129
  3457                           
  3458                           ; Padding undefined space
  3459   300007                     	org	3145735
  3460   300007  FF                 	db	255
  3461                           
  3462                           ;Config register CONFIG5L @ 0x300008
  3463                           ;	Code Protection bit
  3464                           ;	CP0 = OFF, Block 0 (000800-003FFFh) not code-protected
  3465                           ;	Code Protection bit
  3466                           ;	CP1 = OFF, Block 1 (004000-007FFFh) not code-protected
  3467                           ;	Code Protection bit
  3468                           ;	CP2 = OFF, Block 2 (008000-00BFFFh) not code-protected
  3469                           ;	Code Protection bit
  3470                           ;	CP3 = OFF, Block 3 (00C000-00FFFFh) not code-protected
  3471   300008                     	org	3145736
  3472   300008  0F                 	db	15
  3473                           
  3474                           ;Config register CONFIG5H @ 0x300009
  3475                           ;	Boot Block Code Protection bit
  3476                           ;	CPB = OFF, Boot block (000000-0007FFh) not code-protected
  3477                           ;	Data EEPROM Code Protection bit
  3478                           ;	CPD = OFF, Data EEPROM not code-protected
  3479   300009                     	org	3145737
  3480   300009  C0                 	db	192
  3481                           
  3482                           ;Config register CONFIG6L @ 0x30000A
  3483                           ;	Write Protection bit
  3484                           ;	WRT0 = OFF, Block 0 (000800-003FFFh) not write-protected
  3485                           ;	Write Protection bit
  3486                           ;	WRT1 = OFF, Block 1 (004000-007FFFh) not write-protected
  3487                           ;	Write Protection bit
  3488                           ;	WRT2 = OFF, Block 2 (008000-00BFFFh) not write-protected
  3489                           ;	Write Protection bit
  3490                           ;	WRT3 = OFF, Block 3 (00C000-00FFFFh) not write-protected
  3491   30000A                     	org	3145738
  3492   30000A  0F                 	db	15
  3493                           
  3494                           ;Config register CONFIG6H @ 0x30000B
  3495                           ;	Configuration Register Write Protection bit
  3496                           ;	WRTC = OFF, Configuration registers (300000-3000FFh) not write-protected
  3497                           ;	Boot Block Write Protection bit
  3498                           ;	WRTB = OFF, Boot Block (000000-0007FFh) not write-protected
  3499                           ;	Data EEPROM Write Protection bit
  3500                           ;	WRTD = OFF, Data EEPROM not write-protected
  3501   30000B                     	org	3145739
  3502   30000B  E0                 	db	224
  3503                           
  3504                           ;Config register CONFIG7L @ 0x30000C
  3505                           ;	Table Read Protection bit
  3506                           ;	EBTR0 = OFF, Block 0 (000800-003FFFh) not protected from table reads executed in other
      +                           blocks
  3507                           ;	Table Read Protection bit
  3508                           ;	EBTR1 = OFF, Block 1 (004000-007FFFh) not protected from table reads executed in other
      +                           blocks
  3509                           ;	Table Read Protection bit
  3510                           ;	EBTR2 = OFF, Block 2 (008000-00BFFFh) not protected from table reads executed in other
      +                           blocks
  3511                           ;	Table Read Protection bit
  3512                           ;	EBTR3 = OFF, Block 3 (00C000-00FFFFh) not protected from table reads executed in other
      +                           blocks
  3513   30000C                     	org	3145740
  3514   30000C  0F                 	db	15
  3515                           
  3516                           ;Config register CONFIG7H @ 0x30000D
  3517                           ;	Boot Block Table Read Protection bit
  3518                           ;	EBTRB = OFF, Boot Block (000000-0007FFh) not protected from table reads executed in ot
      +                          her blocks
  3519   30000D                     	org	3145741
  3520   30000D  40                 	db	64
  3521                           tosu	equ	0xFFF
  3522                           tosh	equ	0xFFE
  3523                           tosl	equ	0xFFD
  3524                           stkptr	equ	0xFFC
  3525                           pclatu	equ	0xFFB
  3526                           pclath	equ	0xFFA
  3527                           pcl	equ	0xFF9
  3528                           tblptru	equ	0xFF8
  3529                           tblptrh	equ	0xFF7
  3530                           tblptrl	equ	0xFF6
  3531                           tablat	equ	0xFF5
  3532                           prodh	equ	0xFF4
  3533                           prodl	equ	0xFF3
  3534                           indf0	equ	0xFEF
  3535                           postinc0	equ	0xFEE
  3536                           postdec0	equ	0xFED
  3537                           preinc0	equ	0xFEC
  3538                           plusw0	equ	0xFEB
  3539                           fsr0h	equ	0xFEA
  3540                           fsr0l	equ	0xFE9
  3541                           wreg	equ	0xFE8
  3542                           indf1	equ	0xFE7
  3543                           postinc1	equ	0xFE6
  3544                           postdec1	equ	0xFE5
  3545                           preinc1	equ	0xFE4
  3546                           plusw1	equ	0xFE3
  3547                           fsr1h	equ	0xFE2
  3548                           fsr1l	equ	0xFE1
  3549                           bsr	equ	0xFE0
  3550                           indf2	equ	0xFDF
  3551                           postinc2	equ	0xFDE
  3552                           postdec2	equ	0xFDD
  3553                           preinc2	equ	0xFDC
  3554                           plusw2	equ	0xFDB
  3555                           fsr2h	equ	0xFDA
  3556                           fsr2l	equ	0xFD9
  3557                           status	equ	0xFD8

Data Sizes:
    Strings     3
    Constant    16
    Data        50
    BSS         90
    Persistent  0
    Stack       0

Auto Spaces:
    Space          Size  Autos    Used
    COMRAM          126     17     122
    BANK0           128      0      35
    BANK1           256      0       0
    BANK2           256      0       0
    BANK3           256      0       0
    BANK4           256      0       0
    BANK5           256      0       0
    BANK6           256      0       0
    BANK7           256      0       0
    BANK8           256      0       0
    BANK9           256      0       0
    BANK10          256      0       0
    BANK11          256      0       0
    BANK12          256      0       0
    BANK13          256      0       0
    BANK14          256      0       0
    BANK15          128      0       0

Pointer List with Targets:

    ADC_Get_Conversion_Result@adc$ADC_InterruptHandler	PTR FTN()void  size(2) Largest target is 0

    ADC_Init@adc$ADC_InterruptHandler	PTR FTN()void  size(2) Largest target is 0

    ADC_InterruptHandler	PTR FTN()void  size(2) Largest target is 1
		 -> NULL(), 

    CCP1_InterruptHandler	PTR FTN()void  size(2) Largest target is 1
		 -> NULL(), 

    CCP2_InterruptHandler	PTR FTN()void  size(2) Largest target is 1
		 -> NULL(), 

    CCP_Capture_Mode_Config@_ccp_obj$CCP1_InterruptHandler	PTR FTN()void  size(2) Largest target is 0

    CCP_Capture_Mode_Config@_ccp_obj$CCP2_InterruptHandler	PTR FTN()void  size(2) Largest target is 0

    CCP_Compare_Mode_Config@_ccp_obj$CCP1_InterruptHandler	PTR FTN()void  size(2) Largest target is 0

    CCP_Compare_Mode_Config@_ccp_obj$CCP2_InterruptHandler	PTR FTN()void  size(2) Largest target is 0

    CCP_Compare_Mode_Set_Value@_ccp_obj$CCP1_InterruptHandler	PTR FTN()void  size(2) Largest target is 0

    CCP_Compare_Mode_Set_Value@_ccp_obj$CCP2_InterruptHandler	PTR FTN()void  size(2) Largest target is 0

    CCP_DeInit@_ccp_obj$CCP1_InterruptHandler	PTR FTN()void  size(2) Largest target is 0

    CCP_DeInit@_ccp_obj$CCP2_InterruptHandler	PTR FTN()void  size(2) Largest target is 0

    CCP_Init@_ccp_obj$CCP1_InterruptHandler	PTR FTN()void  size(2) Largest target is 0

    CCP_Init@_ccp_obj$CCP2_InterruptHandler	PTR FTN()void  size(2) Largest target is 0

    CCP_Interrupt_Config@_ccp_obj$CCP1_InterruptHandler	PTR FTN()void  size(2) Largest target is 0

    CCP_Interrupt_Config@_ccp_obj$CCP2_InterruptHandler	PTR FTN()void  size(2) Largest target is 0

    CCP_Is_Compare_Complete@_ccp_obj$CCP1_InterruptHandler	PTR FTN()void  size(2) Largest target is 0

    CCP_Is_Compare_Complete@_ccp_obj$CCP2_InterruptHandler	PTR FTN()void  size(2) Largest target is 0

    CCP_Mode_Timer_Select@_ccp_obj$CCP1_InterruptHandler	PTR FTN()void  size(2) Largest target is 0

    CCP_Mode_Timer_Select@_ccp_obj$CCP2_InterruptHandler	PTR FTN()void  size(2) Largest target is 0

    CCP_PWM_Mode_Config@_ccp_obj$CCP1_InterruptHandler	PTR FTN()void  size(2) Largest target is 0

    CCP_PWM_Mode_Config@_ccp_obj$CCP2_InterruptHandler	PTR FTN()void  size(2) Largest target is 0

    CCP_PWM_Set_Duty@_ccp_obj$CCP1_InterruptHandler	PTR FTN()void  size(2) Largest target is 0

    CCP_PWM_Set_Duty@_ccp_obj$CCP2_InterruptHandler	PTR FTN()void  size(2) Largest target is 0

    CCP_PWM_Start@_ccp_obj$CCP1_InterruptHandler	PTR FTN()void  size(2) Largest target is 0

    CCP_PWM_Start@_ccp_obj$CCP2_InterruptHandler	PTR FTN()void  size(2) Largest target is 0

    CCP_PWM_Stop@_ccp_obj$CCP1_InterruptHandler	PTR FTN()void  size(2) Largest target is 0

    CCP_PWM_Stop@_ccp_obj$CCP2_InterruptHandler	PTR FTN()void  size(2) Largest target is 0

    EUSART_ASYNC_RX_Init@_eusart_obj$EUSART_FramingErrorHandler	PTR FTN()void  size(2) Largest target is 0

    EUSART_ASYNC_RX_Init@_eusart_obj$EUSART_OverrunErrorHandler	PTR FTN()void  size(2) Largest target is 0

    EUSART_ASYNC_RX_Init@_eusart_obj$EUSART_RxInterruptHandler	PTR FTN()void  size(2) Largest target is 0

    EUSART_ASYNC_RX_Init@_eusart_obj$EUSART_TxInterruptHandler	PTR FTN()void  size(2) Largest target is 0

    EUSART_ASYNC_TX_Init@_eusart_obj$EUSART_FramingErrorHandler	PTR FTN()void  size(2) Largest target is 0

    EUSART_ASYNC_TX_Init@_eusart_obj$EUSART_OverrunErrorHandler	PTR FTN()void  size(2) Largest target is 0

    EUSART_ASYNC_TX_Init@_eusart_obj$EUSART_RxInterruptHandler	PTR FTN()void  size(2) Largest target is 0

    EUSART_ASYNC_TX_Init@_eusart_obj$EUSART_TxInterruptHandler	PTR FTN()void  size(2) Largest target is 0

    EUSART_Baud_Rate_Calculation@_eusart_obj$EUSART_FramingErrorHandler	PTR FTN()void  size(2) Largest target is 0

    EUSART_Baud_Rate_Calculation@_eusart_obj$EUSART_OverrunErrorHandler	PTR FTN()void  size(2) Largest target is 0

    EUSART_Baud_Rate_Calculation@_eusart_obj$EUSART_RxInterruptHandler	PTR FTN()void  size(2) Largest target is 0

    EUSART_Baud_Rate_Calculation@_eusart_obj$EUSART_TxInterruptHandler	PTR FTN()void  size(2) Largest target is 0

    EUSART_FramingErrorHandler	PTR FTN()void  size(2) Largest target is 1
		 -> NULL(), 

    EUSART_OverrunErrorHandler	PTR FTN()void  size(2) Largest target is 1
		 -> NULL(), 

    EUSART_RxInterruptHandler	PTR FTN()void  size(2) Largest target is 1
		 -> NULL(), 

    EUSART_TxInterruptHandler	PTR FTN()void  size(2) Largest target is 1
		 -> NULL(), 

    f$.$buffer	PTR unsigned char  size(2) Largest target is 0

    f$.$source	PTR const unsigned char  size(2) Largest target is 0

    gpio_pin_direction_initialize@config	PTR const struct . size(1) Largest target is 8
		 -> keypad1(BANK0[8]), keypad1$keypad_columns_pins(BANK0[4]), keypad1$keypad_rows_pins(BANK0[4]), led_initialize@pin_obj(COMRAM[1]), 
		 -> MSSP_SPI_Msster_Mode_GPIO_PIN_Configurations@SPI_CLK(COMRAM[1]), MSSP_SPI_Msster_Mode_GPIO_PIN_Configurations@SPI_SDI(COMRAM[1]), MSSP_SPI_Msster_Mode_GPIO_PIN_Configurations@SPI_SDO(COMRAM[1]), MSSP_SPI_Slave_Mode_GPIO_PIN_Configurations@SPI_CLK(COMRAM[1]), 
		 -> MSSP_SPI_Slave_Mode_GPIO_PIN_Configurations@SPI_SDI(COMRAM[1]), MSSP_SPI_Slave_Mode_GPIO_PIN_Configurations@SPI_SDO(COMRAM[1]), MSSP_SPI_Slave_Mode_GPIO_PIN_Configurations@SPI_SS(COMRAM[1]), relay_initialize@relay_obj(COMRAM[1]), 

    gpio_pin_initialize@config	PTR const struct . size(1) Largest target is 8
		 -> keypad1(BANK0[8]), keypad1$keypad_rows_pins(BANK0[4]), led_initialize@pin_obj(COMRAM[1]), relay_initialize@relay_obj(COMRAM[1]), 

    gpio_pin_read_logic@config	PTR const struct . size(1) Largest target is 8
		 -> keypad1(BANK0[8]), keypad1$keypad_columns_pins(BANK0[4]), 

    gpio_pin_read_logic@logic_status	PTR enum E2986 size(1) Largest target is 1
		 -> button_read_state@logic_status(COMRAM[1]), keypad_get_value@column_logic(COMRAM[1]), Ultrasonic_Calculate_Distance@EchoPinLogic(COMRAM[1]), 

    gpio_pin_write_logic@config	PTR const struct . size(1) Largest target is 8
		 -> keypad1(BANK0[8]), keypad1$keypad_rows_pins(BANK0[4]), led_initialize@pin_obj(COMRAM[1]), led_turn_off@pin_obj(COMRAM[1]), 
		 -> led_turn_on@pin_obj(COMRAM[1]), relay_initialize@relay_obj(COMRAM[1]), relay_turn_off@relay_obj(COMRAM[1]), relay_turn_on@relay_obj(COMRAM[1]), 

    I2C_DefaultInterruptHandle	PTR FTN()void  size(2) Largest target is 1
		 -> NULL(), 

    I2C_Master_Mode_Clock_Configurations@i2c_obj$I2C_DefaultInterruptHandler	PTR FTN()void  size(2) Largest target is 0

    I2C_Master_Mode_Clock_Configurations@i2c_obj$I2C_Report_Receive_Overflow	PTR FTN()void  size(2) Largest target is 0

    I2C_Master_Mode_Clock_Configurations@i2c_obj$I2C_Report_Write_Collision	PTR FTN()void  size(2) Largest target is 0

    I2C_Report_Receive_Overflow_InterruptHandle	PTR FTN()void  size(2) Largest target is 1
		 -> NULL(), 

    I2C_Report_Write_Collision_InterruptHandler	PTR FTN()void  size(2) Largest target is 1
		 -> NULL(), 

    I2C_Slave_Mode_Configurations@i2c_obj$I2C_DefaultInterruptHandler	PTR FTN()void  size(2) Largest target is 0

    I2C_Slave_Mode_Configurations@i2c_obj$I2C_Report_Receive_Overflow	PTR FTN()void  size(2) Largest target is 0

    I2C_Slave_Mode_Configurations@i2c_obj$I2C_Report_Write_Collision	PTR FTN()void  size(2) Largest target is 0

    INT0_InterruptHandler	PTR FTN()void  size(2) Largest target is 1
		 -> NULL(), 

    INT1_InterruptHandler	PTR FTN()void  size(2) Largest target is 1
		 -> NULL(), 

    INT2_InterruptHandler	PTR FTN()void  size(2) Largest target is 1
		 -> NULL(), 

    Interrupt_INTx_Clear_Flag@int_obj$EXT_InterruptHandler	PTR FTN()void  size(2) Largest target is 0

    Interrupt_INTx_Disable@int_obj$EXT_InterruptHandler	PTR FTN()void  size(2) Largest target is 0

    Interrupt_INTx_Edge_Init@int_obj$EXT_InterruptHandler	PTR FTN()void  size(2) Largest target is 0

    Interrupt_INTx_Enable@int_obj$EXT_InterruptHandler	PTR FTN()void  size(2) Largest target is 0

    Interrupt_INTx_Pin_Init@int_obj$EXT_InterruptHandler	PTR FTN()void  size(2) Largest target is 0

    Interrupt_INTx_SetInterruptHandler@int_obj$EXT_InterruptHandler	PTR FTN()void  size(2) Largest target is 0

    Interrupt_RBx_Init@int_obj$EXT_InterruptHandler_HIGH	PTR FTN()void  size(2) Largest target is 0

    Interrupt_RBx_Init@int_obj$EXT_InterruptHandler_LOW	PTR FTN()void  size(2) Largest target is 0

    Interrupt_RBx_Pin_Init@int_obj$EXT_InterruptHandler_HIGH	PTR FTN()void  size(2) Largest target is 0

    Interrupt_RBx_Pin_Init@int_obj$EXT_InterruptHandler_LOW	PTR FTN()void  size(2) Largest target is 0

    keypad_get_value@pad	PTR const struct . size(1) Largest target is 8
		 -> keypad1(BANK0[8]), 

    keypad_get_value@value	PTR unsigned char  size(1) Largest target is 1
		 -> keypad_val(COMRAM[1]), 

    keypad_initialize@pad	PTR const struct . size(1) Largest target is 8
		 -> keypad1(BANK0[8]), 

    lat_registers	PTR volatile unsigned char [5] size(2) Largest target is 1
		 -> LATA(BITBIGSFRlllll[1]), LATB(BITBIGSFRllllh[1]), LATC(BITBIGSFRllllh[1]), LATD(BITBIGSFRllllh[1]), 
		 -> LATE(BITBIGSFRllllh[1]), 

    led_initialize@led	PTR const struct . size(1) Largest target is 1
		 -> led_1(COMRAM[1]), 

    MSSP_I2C_Init@i2c_obj$I2C_DefaultInterruptHandler	PTR FTN()void  size(2) Largest target is 0

    MSSP_I2C_Init@i2c_obj$I2C_Report_Receive_Overflow	PTR FTN()void  size(2) Largest target is 0

    MSSP_I2C_Init@i2c_obj$I2C_Report_Write_Collision	PTR FTN()void  size(2) Largest target is 0

    MSSP_I2C_Interrupt_Configurations@i2c_obj$I2C_DefaultInterruptHandler	PTR FTN()void  size(2) Largest target is 0

    MSSP_I2C_Interrupt_Configurations@i2c_obj$I2C_Report_Receive_Overflow	PTR FTN()void  size(2) Largest target is 0

    MSSP_I2C_Interrupt_Configurations@i2c_obj$I2C_Report_Write_Collision	PTR FTN()void  size(2) Largest target is 0

    MSSP_SPI_Interrupt_Init@Config$MSSP_SPI_InterruptHandler	PTR FTN()void  size(2) Largest target is 0

    MSSP_SPI_Slave_Mode_GPIO_PIN_Configurations@Config$MSSP_SPI_InterruptHandler	PTR FTN()void  size(2) Largest target is 0

    port_registers	PTR volatile unsigned char [5] size(2) Largest target is 1
		 -> PORTA(BITBIGSFRlllll[1]), PORTB(BITBIGSFRlllll[1]), PORTC(BITBIGSFRlllll[1]), PORTD(BITBIGSFRlllll[1]), 
		 -> PORTE(BITBIGSFRlllll[1]), 

    RB4_InterruptHandler_HIGH	PTR FTN()void  size(2) Largest target is 1
		 -> NULL(), 

    RB4_InterruptHandler_LOW	PTR FTN()void  size(2) Largest target is 1
		 -> NULL(), 

    RB5_InterruptHandler_HIGH	PTR FTN()void  size(2) Largest target is 1
		 -> NULL(), 

    RB5_InterruptHandler_LOW	PTR FTN()void  size(2) Largest target is 1
		 -> NULL(), 

    RB6_InterruptHandler_HIGH	PTR FTN()void  size(2) Largest target is 1
		 -> NULL(), 

    RB6_InterruptHandler_LOW	PTR FTN()void  size(2) Largest target is 1
		 -> NULL(), 

    RB7_InterruptHandler_HIGH	PTR FTN()void  size(2) Largest target is 1
		 -> NULL(), 

    RB7_InterruptHandler_LOW	PTR FTN()void  size(2) Largest target is 1
		 -> NULL(), 

    S1154$CCP1_InterruptHandler	PTR FTN()void  size(2) Largest target is 0

    S1154$CCP2_InterruptHandler	PTR FTN()void  size(2) Largest target is 0

    S1851$EUSART_FramingErrorHandler	PTR FTN()void  size(2) Largest target is 0

    S1851$EUSART_OverrunErrorHandler	PTR FTN()void  size(2) Largest target is 0

    S1851$EUSART_RxInterruptHandler	PTR FTN()void  size(2) Largest target is 0

    S1851$EUSART_TxInterruptHandler	PTR FTN()void  size(2) Largest target is 0

    S2418$I2C_DefaultInterruptHandler	PTR FTN()void  size(2) Largest target is 0

    S2418$I2C_Report_Receive_Overflow	PTR FTN()void  size(2) Largest target is 0

    S2418$I2C_Report_Write_Collision	PTR FTN()void  size(2) Largest target is 0

    S2999$EXT_InterruptHandler	PTR FTN()void  size(2) Largest target is 0

    S3037$EXT_InterruptHandler_HIGH	PTR FTN()void  size(2) Largest target is 0

    S3037$EXT_InterruptHandler_LOW	PTR FTN()void  size(2) Largest target is 0

    S3563$MSSP_SPI_InterruptHandler	PTR FTN()void  size(2) Largest target is 0

    S3898$TMR0_InterruptHandler	PTR FTN()void  size(2) Largest target is 0

    S4063$TMR1_InterruptHandler	PTR FTN()void  size(2) Largest target is 0

    S4252$TMR2_InterruptHandler	PTR FTN()void  size(2) Largest target is 0

    S4383$TMR3_InterruptHandler	PTR FTN()void  size(2) Largest target is 0

    S5008$buffer	PTR unsigned char  size(2) Largest target is 0

    S5008$source	PTR const unsigned char  size(2) Largest target is 0

    S770$ADC_InterruptHandler	PTR FTN()void  size(2) Largest target is 0

    sp__memset	PTR void  size(2) Largest target is 0

    SPI_Init@Config$MSSP_SPI_InterruptHandler	PTR FTN()void  size(2) Largest target is 0

    SPI_InterruptHandler	PTR FTN()void  size(2) Largest target is 1
		 -> NULL(), 

    Timer0_Init@timer0$TMR0_InterruptHandler	PTR FTN()void  size(2) Largest target is 0

    Timer0_Mode_Select@timer0$TMR0_InterruptHandler	PTR FTN()void  size(2) Largest target is 0

    Timer0_Prescaler_Config@timer0$TMR0_InterruptHandler	PTR FTN()void  size(2) Largest target is 0

    Timer0_Register_Size_Config@timer0$TMR0_InterruptHandler	PTR FTN()void  size(2) Largest target is 0

    Timer1_Init@timer1$TMR1_InterruptHandler	PTR FTN()void  size(2) Largest target is 0

    Timer1_Mode_Select@timer1$TMR1_InterruptHandler	PTR FTN()void  size(2) Largest target is 0

    Timer2_Init@timer2$TMR2_InterruptHandler	PTR FTN()void  size(2) Largest target is 0

    Timer3_Init@timer3$TMR3_InterruptHandler	PTR FTN()void  size(2) Largest target is 0

    Timer3_Mode_Select@timer3$TMR3_InterruptHandler	PTR FTN()void  size(2) Largest target is 0

    TMR0_InterruptHandler	PTR FTN()void  size(2) Largest target is 1
		 -> NULL(), 

    TMR1_InterruptHandler	PTR FTN()void  size(2) Largest target is 1
		 -> NULL(), 

    TMR2_InterruptHandler	PTR FTN()void  size(2) Largest target is 1
		 -> NULL(), 

    TMR3_InterruptHandler	PTR FTN()void  size(2) Largest target is 1
		 -> NULL(), 

    tris_registers	PTR volatile unsigned char [5] size(2) Largest target is 1
		 -> TRISA(BITBIGSFRlllll[1]), TRISB(ABS[1]), TRISC(SFR[1]), TRISD(ABS[1]), 
		 -> TRISE(ABS[1]), 

    vfprintf$0	PTR struct _IO_FILE size(1) Largest target is 12
		 -> sprintf@f(COMRAM[12]), 

    vfprintf$1	PTR const unsigned char  size(1) Largest target is 3
		 -> STR_1(CODE[3]), STR_2(CODE[3]), STR_3(CODE[3]), 

    vfprintf$2	PTR PTR void  size(1) Largest target is 1
		 -> sprintf@ap(COMRAM[1]), 


Critical Paths under _main in COMRAM

    _main->_keypad_get_value
    _keypad_get_value->_gpio_pin_write_logic
    _ecu_layer_initialize->_keypad_initialize
    _ecu_layer_initialize->_led_initialize
    _led_initialize->_gpio_pin_initialize
    _keypad_initialize->_gpio_pin_initialize
    _gpio_pin_initialize->_gpio_pin_write_logic

Critical Paths under _InterruptManagerHigh in COMRAM

    _InterruptManagerHigh->_RB4_ISR
    _InterruptManagerHigh->_RB5_ISR
    _InterruptManagerHigh->_RB6_ISR
    _InterruptManagerHigh->_RB7_ISR

Critical Paths under _main in BANK0

    None.

Critical Paths under _InterruptManagerHigh in BANK0

    None.

Critical Paths under _main in BANK1

    None.

Critical Paths under _InterruptManagerHigh in BANK1

    None.

Critical Paths under _main in BANK2

    None.

Critical Paths under _InterruptManagerHigh in BANK2

    None.

Critical Paths under _main in BANK3

    None.

Critical Paths under _InterruptManagerHigh in BANK3

    None.

Critical Paths under _main in BANK4

    None.

Critical Paths under _InterruptManagerHigh in BANK4

    None.

Critical Paths under _main in BANK5

    None.

Critical Paths under _InterruptManagerHigh in BANK5

    None.

Critical Paths under _main in BANK6

    None.

Critical Paths under _InterruptManagerHigh in BANK6

    None.

Critical Paths under _main in BANK7

    None.

Critical Paths under _InterruptManagerHigh in BANK7

    None.

Critical Paths under _main in BANK8

    None.

Critical Paths under _InterruptManagerHigh in BANK8

    None.

Critical Paths under _main in BANK9

    None.

Critical Paths under _InterruptManagerHigh in BANK9

    None.

Critical Paths under _main in BANK10

    None.

Critical Paths under _InterruptManagerHigh in BANK10

    None.

Critical Paths under _main in BANK11

    None.

Critical Paths under _InterruptManagerHigh in BANK11

    None.

Critical Paths under _main in BANK12

    None.

Critical Paths under _InterruptManagerHigh in BANK12

    None.

Critical Paths under _main in BANK13

    None.

Critical Paths under _InterruptManagerHigh in BANK13

    None.

Critical Paths under _main in BANK14

    None.

Critical Paths under _InterruptManagerHigh in BANK14

    None.

Critical Paths under _main in BANK15

    None.

Critical Paths under _InterruptManagerHigh in BANK15

    None.

Call Graph Tables:

 ---------------------------------------------------------------------------------
 (Depth) Function   	        Calls       Base Space   Used Autos Params    Refs
 ---------------------------------------------------------------------------------
 (0) _main                                                 1     1      0   23335
             _application_initialize
                   _keypad_get_value
 ---------------------------------------------------------------------------------
 (1) _keypad_get_value                                     8     6      2    6570
                                              9 COMRAM     8     6      2
                _gpio_pin_read_logic
               _gpio_pin_write_logic
 ---------------------------------------------------------------------------------
 (2) _gpio_pin_read_logic                                  7     5      2     765
                                              1 COMRAM     7     5      2
 ---------------------------------------------------------------------------------
 (1) _application_initialize                               1     1      0   16763
               _ecu_layer_initialize
              _mcal_layer_initialize
 ---------------------------------------------------------------------------------
 (2) _mcal_layer_initialize                                1     1      0       1
 ---------------------------------------------------------------------------------
 (2) _ecu_layer_initialize                                 1     1      0   16761
                  _keypad_initialize
                     _led_initialize
 ---------------------------------------------------------------------------------
 (3) _led_initialize                                       4     3      1    7870
                                             12 COMRAM     4     3      1
                _gpio_pin_initialize
 ---------------------------------------------------------------------------------
 (3) _keypad_initialize                                    4     3      1    8888
                                             12 COMRAM     4     3      1
      _gpio_pin_direction_initialize
                _gpio_pin_initialize
 ---------------------------------------------------------------------------------
 (4) _gpio_pin_initialize                                  3     2      1    7641
                                              9 COMRAM     3     2      1
      _gpio_pin_direction_initialize
               _gpio_pin_write_logic
 ---------------------------------------------------------------------------------
 (2) _gpio_pin_write_logic                                 8     6      2    5196
                                              1 COMRAM     8     6      2
 ---------------------------------------------------------------------------------
 (5) _gpio_pin_direction_initialize                        7     6      1     940
                                              1 COMRAM     7     6      1
 ---------------------------------------------------------------------------------
 Estimated maximum stack depth 5
 ---------------------------------------------------------------------------------
 (Depth) Function   	        Calls       Base Space   Used Autos Params    Refs
 ---------------------------------------------------------------------------------
 (6) _InterruptManagerHigh                                 0     0      0     120
                            _ADC_ISR
                           _CCP1_ISR
                           _CCP2_ISR
                      _EUSART_Rx_ISR
                      _EUSART_Tx_ISR
                           _INT0_ISR
                           _INT1_ISR
                           _INT2_ISR
                    _MSSP_I2C_BC_ISR
                       _MSSP_I2C_ISR
                       _MSSP_SPI_ISR
                            _RB4_ISR
                            _RB5_ISR
                            _RB6_ISR
                            _RB7_ISR
                           _TMR0_ISR
                           _TMR1_ISR
                           _TMR2_ISR
                           _TMR3_ISR
 ---------------------------------------------------------------------------------
 (7) _TMR3_ISR                                             0     0      0       0
 ---------------------------------------------------------------------------------
 (7) _TMR2_ISR                                             0     0      0       0
 ---------------------------------------------------------------------------------
 (7) _TMR1_ISR                                             0     0      0       0
 ---------------------------------------------------------------------------------
 (7) _TMR0_ISR                                             0     0      0       0
 ---------------------------------------------------------------------------------
 (7) _RB7_ISR                                              1     1      0      30
                                              0 COMRAM     1     1      0
 ---------------------------------------------------------------------------------
 (7) _RB6_ISR                                              1     1      0      30
                                              0 COMRAM     1     1      0
 ---------------------------------------------------------------------------------
 (7) _RB5_ISR                                              1     1      0      30
                                              0 COMRAM     1     1      0
 ---------------------------------------------------------------------------------
 (7) _RB4_ISR                                              1     1      0      30
                                              0 COMRAM     1     1      0
 ---------------------------------------------------------------------------------
 (7) _MSSP_SPI_ISR                                         0     0      0       0
 ---------------------------------------------------------------------------------
 (7) _MSSP_I2C_ISR                                         0     0      0       0
 ---------------------------------------------------------------------------------
 (7) _MSSP_I2C_BC_ISR                                      0     0      0       0
 ---------------------------------------------------------------------------------
 (7) _INT2_ISR                                             0     0      0       0
 ---------------------------------------------------------------------------------
 (7) _INT1_ISR                                             0     0      0       0
 ---------------------------------------------------------------------------------
 (7) _INT0_ISR                                             0     0      0       0
 ---------------------------------------------------------------------------------
 (7) _EUSART_Tx_ISR                                        0     0      0       0
 ---------------------------------------------------------------------------------
 (7) _EUSART_Rx_ISR                                        0     0      0       0
 ---------------------------------------------------------------------------------
 (7) _CCP2_ISR                                             0     0      0       0
 ---------------------------------------------------------------------------------
 (7) _CCP1_ISR                                             0     0      0       0
 ---------------------------------------------------------------------------------
 (7) _ADC_ISR                                              0     0      0       0
 ---------------------------------------------------------------------------------
 Estimated maximum stack depth 7
 ---------------------------------------------------------------------------------

 Call Graph Graphs:

 _main (ROOT)
   _application_initialize
     _ecu_layer_initialize
       _keypad_initialize
         _gpio_pin_direction_initialize
         _gpio_pin_initialize
           _gpio_pin_direction_initialize
           _gpio_pin_write_logic
       _led_initialize
         _gpio_pin_initialize
     _mcal_layer_initialize
   _keypad_get_value
     _gpio_pin_read_logic
     _gpio_pin_write_logic

 _InterruptManagerHigh (ROOT)
   _ADC_ISR
   _CCP1_ISR
   _CCP2_ISR
   _EUSART_Rx_ISR
   _EUSART_Tx_ISR
   _INT0_ISR
   _INT1_ISR
   _INT2_ISR
   _MSSP_I2C_BC_ISR
   _MSSP_I2C_ISR
   _MSSP_SPI_ISR
   _RB4_ISR
   _RB5_ISR
   _RB6_ISR
   _RB7_ISR
   _TMR0_ISR
   _TMR1_ISR
   _TMR2_ISR
   _TMR3_ISR

 Address spaces:
Name               Size   Autos  Total    Cost      Usage
BIGRAM             F7F      0       0      47        0.0%
EEDATA             400      0       0       0        0.0%
BITBANK14          100      0       0      33        0.0%
BANK14             100      0       0      34        0.0%
BITBANK13          100      0       0      31        0.0%
BANK13             100      0       0      32        0.0%
BITBANK12          100      0       0      29        0.0%
BANK12             100      0       0      30        0.0%
BITBANK11          100      0       0      27        0.0%
BANK11             100      0       0      28        0.0%
BITBANK10          100      0       0      25        0.0%
BANK10             100      0       0      26        0.0%
BITBANK9           100      0       0      23        0.0%
BANK9              100      0       0      24        0.0%
BITBANK8           100      0       0      21        0.0%
BANK8              100      0       0      22        0.0%
BITBANK7           100      0       0      18        0.0%
BANK7              100      0       0      19        0.0%
BITBANK6           100      0       0      16        0.0%
BANK6              100      0       0      17        0.0%
BITBANK5           100      0       0      14        0.0%
BANK5              100      0       0      15        0.0%
BITBANK4           100      0       0      12        0.0%
BANK4              100      0       0      13        0.0%
BITBANK3           100      0       0      10        0.0%
BANK3              100      0       0      11        0.0%
BITBANK2           100      0       0       8        0.0%
BANK2              100      0       0       9        0.0%
BITBANK1           100      0       0       6        0.0%
BANK1              100      0       0       7        0.0%
BITBANK15           80      0       0      35        0.0%
BANK15              80      0       0      36        0.0%
BITBANK0            80      0       0       4        0.0%
BANK0               80      0      23       5       27.3%
BITCOMRAM           7E      0       0       0        0.0%
COMRAM              7E     11      7A       1       96.8%
BITBIGSFRhlhhlh     18      0       0      38        0.0%
BITBIGSFRhh          D      0       0      37        0.0%
BITBIGSFRlllhh       6      0       0      44        0.0%
BITBIGSFRhlhhll      5      0       0      39        0.0%
BITBIGSFRllhllh      4      0       0      41        0.0%
BITBIGSFRllllh       4      0       0      45        0.0%
BITBIGSFRllhllh      4      0       0      42        0.0%
BITBIGSFRlllll       4      0       0      46        0.0%
BITBIGSFRllhllh      1      0       0      40        0.0%
BITBIGSFRllhlll      1      0       0      43        0.0%
BIGSFR               0      0       0     200        0.0%
BITSFR               0      0       0     200        0.0%
SFR                  0      0       0     200        0.0%
STACK                0      0       0       2        0.0%
NULL                 0      0       0       0        0.0%
ABS                  0      0      9D      20        0.0%
DATA                 0      0      9D       3        0.0%
CODE                 0      0       0       0        0.0%


Microchip Technology PIC18 Macro Assembler V2.46 build 20240104201356 
Symbol Table                                                                                   Sun Oct 06 00:25:22 2024

                                      _SSPSTATbits 0FC7                                                l301 17E2  
                                              l305 183C                                                l273 18A4  
                                              l292 1724                                                l284 1722  
                                              l278 18A6                                                l386 1A2E  
                                              l911 152E                                                l930 1642  
                                              l917 1530                                                l943 17C8  
                                              l936 1644                                                l957 196A  
                                              _PR2 0FCB                               keypad_initialize@pad 0076  
                           ??_InterruptManagerHigh 006B                          _RB5_InterruptHandler_HIGH 001F  
                                  __end_of_ADC_ISR 1A8E                                led_initialize@F3067 0048  
                            relay_initialize@F3061 0044                                                wreg 0FE8  
                                  __end_of_RB4_ISR 19F4                                    __end_of_RB5_ISR 19DA  
                                  __end_of_RB6_ISR 19C0                                    __end_of_RB7_ISR 19A6  
                                             l1773 1A8E                                               l1796 1A5C  
                                             l5511 15C0                                               l5503 1532  
                                             l5513 1610                                               l5505 1542  
                                             l5601 1836                                               l5531 1454  
                                             l5515 1614                                               l5507 1562  
                                             l5603 183A                                               l5611 1746  
                                             l5533 14AA                                               l5525 141C  
                                             l5517 163E                                               l5509 156A  
                                             l5613 1766                                               l5535 14FA  
                                             l5527 142C                                               l5551 1964  
                                             l5543 190A                                               l5711 1A1E  
                                             l5615 176E                                               l5607 1726  
                                             l5537 14FE                                               l5529 144C  
                                             l5553 1968                                               l5545 191A  
                                             l5561 185E                                               l5713 1A1E  
                                             l5617 17C2                                               l5609 1736  
                                             l5801 1682                                               l5539 152A  
                                             l5547 193A                                               l5571 186E  
                                             l5715 1A26                                               l5619 17C6  
                                             l5811 1696                                               l6611 19F4  
                                             l6621 1628                                               l5549 1942  
                                             l5581 188E                                               l5573 187E  
                                             l5557 183E                                               l5717 1A8E  
                                             l5821 16B8                                               l5813 16A6  
                                             l6613 19F4                                               l5583 1890  
                                             l5567 1862                                               l5559 1856  
                                             l5591 17DA                                               l5831 170C  
                                             l5823 16C8                                               l5815 16B4  
                                             l5807 1686                                               l6615 19F8  
                                             l5585 18A0                                               l5569 186C  
                                             l5593 17E6                                               l5841 1A54  
                                             l5833 170E                                               l5825 16D8  
                                             l5809 1694                                               l5579 1882  
                                             l5595 181C                                               l5843 1A58  
                                             l5835 171E                                               l5827 16FA  
                                             l5597 182C                                               l5589 17CA  
                                             l5829 16FC                                               l5599 182E  
                                             l5839 1A54                                               l5791 1666  
                                             l5793 1676                                               l5795 167E  
                                             l5789 1646                                               STR_1 1011  
                                             _LATA 0F89                                               _LATB 0F8A  
                                             _LATC 0F8B                                               u4000 18A0  
                                             _LATD 0F8C                                               u4001 189C  
                                             _LATE 0F8D                                               u4010 17DA  
                                             u4011 17D6                                               u4030 1736  
                                             u4031 1732                                               u4040 1746  
                                             u4200 1666                                               u4025 182A  
                                             u4041 1742                                               u4201 1662  
                                             u4050 1766                                               u4210 1676  
                                             u4027 182C                                               u4051 1762  
                                             u4211 1672                                               u4220 16A6  
                                             u4221 16A2                                               u4230 16D8  
                                             u4231 16D4                                               u4064 17B6  
                                             u4240 170C                                               u4065 17B2  
                                             u4241 1708                                               u4250 171E  
                                             u4251 171A                                               u3910 142C  
                                             u3911 1428                                               u3920 144C  
                                             u3904 15DE                                               u3921 1448  
                                             u3905 15DA                                               u3950 1514  
                                             u3934 1472                                               u3870 1542  
                                             u3951 150E                                               u3935 146E  
                                             u3871 153E                                               u3944 14C8  
                                             u3880 1562                                               u3960 191A  
                                             u3945 14C4                                               u3881 155E  
                                             u3961 1916                                               u3970 193A  
                                             u3971 1936                                               u3956 1516  
                                             u3980 1856                                               u3981 1852  
                                             u3894 1588                                               u3990 187E  
                                             u3895 1584                                               u3991 187A  
                                             _TMR2 0FCC                      __end_of_mcal_layer_initialize 1A90  
                         _RB4_InterruptHandler_LOW 0021                                               _main 19F4  
                                 __end_of_CCP1_ISR 1A8A                                   __end_of_CCP2_ISR 1A86  
                         _RB7_InterruptHandler_LOW 0015                                               fsr1h 0FE2  
                                             fsr2h 0FDA                                               indf1 0FE7  
                                             indf2 0FDF                                               fsr1l 0FE1  
                                             fsr2l 0FD9                                               btemp 007B  
                           __end_of_led_initialize 183E                       keypad_get_value@rows_counter 0079  
                                             prodl 0FF3                                               start 000E  
                                     ___param_bank 0000                               _gpio_pin_write_logic 1532  
                           keypad_get_value@retVal 0076                                   __end_of_INT0_ISR 1A7E  
                                 __end_of_INT1_ISR 1A7A                                   __end_of_INT2_ISR 1A76  
                                            ?_main 006A                           ??_application_initialize 007A  
                                            _EEADR 0FA9                    gpio_pin_read_logic@logic_status 006C  
                                            i2l501 1A8C                                              i2l691 1A84  
                                            i2l686 1A88                                              i2l863 1A80  
                                            i2l869 1A90                                              _RCREG 0FAE  
                              relay_turn_off@F3071 0042                                              _TMR0H 0FD7  
                                            _TMR1H 0FCF                                              _TMR0L 0FD6  
                                            _TMR1L 0FCE                                              _TMR3H 0FB3  
                                            _TMR3L 0FB2                                              _SPBRG 0FAF  
                                            _PORTA 0F80                                              _PORTB 0F81  
                                            _PORTC 0F82                                              _PORTD 0F83  
                                            _PORTE 0F84                                      _EUSART_Rx_ISR 1A90  
                                            _TRISA 0F92                                              _TRISB 0F93  
                                            _TRISC 0F94                                              _TRISD 0F95  
                                            _TRISE 0F96                                      _EUSART_Tx_ISR 1A7E  
                                            _TXREG 0FAD                           __end_of_keypad_get_value 1726  
                                 __end_of_TMR0_ISR 1A54                                   __end_of_TMR1_ISR 1A48  
                                 __end_of_TMR2_ISR 1A66                                   __end_of_TMR3_ISR 1A3C  
                                            _led_1 0069                               led_initialize@retVal 0078  
                                            tablat 0FF5                                              ttemp5 007C  
                                            ttemp6 007F                                              ttemp7 0083  
                                            status 0FD8                                              wtemp8 007C  
                                  ?_led_initialize 0076                     ?_gpio_pin_direction_initialize 006B  
                                  __initialization 18A8                                keypad_get_value@pad 0073  
                                     __end_of_main 1A0C                              ?_gpio_pin_write_logic 006B  
                                        ??_ADC_ISR 006A                                      _lat_registers 004A  
                          keypad_get_value@counter 0078                                             ??_main 007B  
                                    __activetblptr 0003                                     ?_EUSART_Rx_ISR 006A  
                            _TMR3_InterruptHandler 0007                                     ?_EUSART_Tx_ISR 006A  
                                 led_turn_on@F3072 0047                                          ??_RB4_ISR 006A  
                                        ??_RB5_ISR 006A                                          ??_RB6_ISR 006A  
                                        ??_RB7_ISR 006A                         _EUSART_OverrunErrorHandler 0031  
                                           _ADRESH 0FC4                                             _EEADRH 0FAA  
                                           _ADRESL 0FC3                                             _EEDATA 0FA8  
                                           _CCPR1H 0FBF                                             _CCPR2H 0FBC  
                                           _CCPR1L 0FBE                                             _CCPR2L 0FBB  
                                           _EECON2 0FA7                                             i2l1200 1A78  
                                           i2l1130 1A70                                             i2l1204 1A74  
                                           i2l1212 19F2                                             i2l1220 19D8  
                                           i2l1126 1A6C                                             i2l1228 19BE  
                                           i2l1236 19A4                                             i2l3041 1A4A  
                                           i2l3043 1A4E                                             i2l3051 1A42  
                                           i2l1196 1A7C                                             i2l1532 1A68  
                                           i2l3061 1A32                                             i2l3039 1A48  
                                           i2l3047 1A3C                                             i2l3055 1A5E  
                                           i2l3063 1A36                                             i2l1455 1418  
                                           i2l1624 1A52                                             i2l3049 1A3E  
                                           i2l5001 1386                                             i2l3067 1A66  
                                           i2l3059 1A30                                             i2l5011 13B8  
                                           i2l5003 1394                                             i2l5021 13F4  
                                           i2l5013 13C6                                             i2l5005 1398  
                                           i2l1718 1A64                                             i2l5023 13F8  
                                           i2l5015 13D4                                             i2l5007 13A6  
                                           i2l5025 1406                                             i2l5017 13D8  
                                           i2l5009 13B4                                             i2l1770 1A3A  
                                           i2l5027 1414                                             i2l5019 13E6  
                                           i2l1678 1A46                                             i2l2931 1A90  
                                           i2l2941 1A6E                                             i2l2927 1A7E  
                                           i2l2945 1A7A                                             i2l2953 1A72  
                                           i2l2937 1A6A                                             i2l2875 1A8A  
                                           i2l2891 1A86                                             i2l2963 19F2  
                                           i2l2949 1A76                                             i2l2957 19DC  
                                           i2l2973 19D8                                             i2l4901 1160  
                                           i2l2959 19DE                                             i2l2967 19C2  
                                           i2l2983 19BE                                             i2l4911 1196  
                                           i2l4903 116E                                             i2l2897 1A82  
                                           i2l2969 19C4                                             i2l2977 19A8  
                                           i2l2993 19A4                                             i2l4913 11A4  
                                           i2l4921 11CC                                             i2l4905 117E  
                                           i2l2979 19AA                                             i2l2987 198E  
                                           i2l4931 120A                                             i2l4923 11DA  
                                           i2l4915 11B2                                             i2l4907 1182  
                                           i2l4851 1046                                             i2l4843 1018  
                                           i2l2989 1990                                             i2l4941 124A  
                                           i2l4925 11E8                                             i2l4933 1210  
                                           i2l4917 11C2                                             i2l4909 1188  
                                           i2l4861 1078                                             i2l4853 1054  
                                           i2l4845 1026                                             i2l4951 127E  
                                           i2l4943 124E                                             i2l4935 121E  
                                           i2l4927 11F6                                             i2l4919 11C6  
                                           i2l4871 10B6                                             i2l4863 1086  
                                           i2l4855 1058                                             i2l4847 1034  
                                           i2l4961 12B4                                             i2l4953 128E  
                                           i2l4937 122C                                             i2l4945 1254  
                                           i2l4929 1206                                             i2l4881 10F6  
                                           i2l4865 1094                                             i2l4873 10BC  
                                           i2l4857 1066                                             i2l4849 1038  
                                           i2l4971 12E6                                             i2l4963 12B8  
                                           i2l4955 1292                                             i2l4947 1262  
                                           i2l4939 123A                                             i2l4891 112A  
                                           i2l4883 10FA                                             i2l4875 10CA  
                                           i2l4867 10A2                                             i2l4859 1074  
                                           i2l4981 1318                                             i2l4973 12F4  
                                           i2l4965 12C6                                             i2l4949 1270  
                                           i2l4957 1298                                             i2l4893 113A  
                                           i2l4877 10D8                                             i2l4885 1100  
                                           i2l4869 10B2                                             i2l4991 1354  
                                           i2l4983 1326                                             i2l4975 12F8  
                                           i2l4967 12D4                                             i2l4959 12A6  
                                           i2l4895 113E                                             i2l4887 110E  
                                           i2l4879 10E6                                             i2l4993 1358  
                                           i2l4985 1334                                             i2l4977 1306  
                                           i2l4969 12D8                                             i2l4889 111C  
                                           i2l4897 1144                                             i2l4995 1366  
                                           i2l4987 1338                                             i2l4979 1314  
                                           i2l4899 1152                                             i2l4997 1374  
                                           i2l4989 1346                                             i2l4999 1378  
                                           _SPBRGH 0FB0                                             _SSPADD 0FC8  
                                           _SSPBUF 0FC9                            keypad_initialize@retVal 0077  
                                           clear_0 18EE                                             clear_1 18FA  
                            led_initialize@pin_obj 0079                                             isa$std 0001  
      _I2C_Report_Receive_Overflow_InterruptHandle 002B                                          ?_CCP1_ISR 006A  
                                     __pdataCOMRAM 004A                                          ?_CCP2_ISR 006A  
                                     __mediumconst 0000                                             tblptrh 0FF7  
                                           tblptrl 0FF6                                             tblptru 0FF8  
                                       __accesstop 0080                            __end_of__initialization 1900  
                                        ?_INT0_ISR 006A                                          ?_INT1_ISR 006A  
                                        ?_INT2_ISR 006A                                      ___rparam_used 0001  
                                led_initialize@led 0076                                  RB5_ISR@RB5_Source 006A  
                           ??_gpio_pin_write_logic 006D                                     __pcstackCOMRAM 006A  
                       _I2C_DefaultInterruptHandle 002D                                       __pidataBANK0 1A0C  
                                        ?_TMR0_ISR 006A                                          ?_TMR1_ISR 006A  
                                        ?_TMR2_ISR 006A                                          ?_TMR3_ISR 006A  
                                  ??_EUSART_Rx_ISR 006A                                    ??_EUSART_Tx_ISR 006A  
                                       ??_CCP1_ISR 006A                                         ??_CCP2_ISR 006A  
                                       __pbssBANK0 0092                              _INT0_InterruptHandler 0029  
                                       ??_INT0_ISR 006A                                         ??_INT1_ISR 006A  
                                       ??_INT2_ISR 006A                             _application_initialize 1A54  
                 gpio_pin_write_logic@logic_status 006C                                         ??_TMR0_ISR 006A  
                                       ??_TMR1_ISR 006A                                         ??_TMR2_ISR 006A  
                                       ??_TMR3_ISR 006A                                  led_turn_off@F3077 0046  
                                          _ADC_ISR 1A8A                                    led_toggle@F3082 0045  
                                RB7_ISR@RB7_Source 006A                                            _RB4_ISR 19DA  
                                          _RB5_ISR 19C0                                            _RB6_ISR 19A6  
                                          _RB7_ISR 198C                          _RB6_InterruptHandler_HIGH 001B  
                                    ?_MSSP_I2C_ISR 006A                                            i2u54_40 19EE  
                                          i2u54_41 19EA                                            i2u55_40 19D4  
                                          i2u55_41 19D0                                            i2u56_40 19BA  
                                          i2u56_41 19B6                                            i2u57_40 19A0  
                                          i2u57_41 199C                                  ?_keypad_get_value 0073  
                                 ??_led_initialize 0077                    CCP_Compare_Mode_Set_Value@F3136 0039  
                               ??_keypad_get_value 0075                                         _btn_values 1001  
                                   _tris_registers 0054                           _RB6_InterruptHandler_LOW 0019  
                            _mcal_layer_initialize 1A8E                                      ?_MSSP_SPI_ISR 006A  
                                ??_MSSP_I2C_BC_ISR 006A                               _ADC_InterruptHandler 003F  
                                          __Hparam 0000                                            __Lparam 0000  
                             _SPI_InterruptHandler 0013                                _gpio_pin_initialize 190A  
                              _gpio_pin_read_logic 1726                   keypad_initialize@columns_counter 0079  
                                     __psmallconst 1000                                            __pcinit 18A8  
                                          __ramtop 1000                                            __ptext0 19F4  
                                          __ptext1 1646                                            __ptext2 1726  
                                          __ptext3 1A54                                            __ptext4 1A8E  
                                          __ptext5 1A1E                                            __ptext6 17CA  
                                          __ptext7 183E                                            __ptext8 190A  
                                          __ptext9 1532                                         _keypad_val 0049  
                                        _T0CONbits 0FD5                                          _T1CONbits 0FCD  
                  ??_gpio_pin_direction_initialize 006C                                     ??_MSSP_I2C_ISR 006A  
                                        _T2CONbits 0FCA                                            _keypad1 008A  
                                        _T3CONbits 0FB1                               ?_gpio_pin_initialize 0073  
                             ?_gpio_pin_read_logic 006B                                     __pintcode_body 1016  
                             end_of_initialization 1900                gpio_pin_direction_initialize@config 006B  
                                          int_func 1016                                     ??_MSSP_SPI_ISR 006A  
              gpio_pin_direction_initialize@retVal 0071                                          _RCSTAbits 0FAB  
                                          postdec1 0FE5                                            postdec2 0FDD  
                                          postinc0 0FEE                                            postinc1 0FE6  
                                          postinc2 0FDE                              _INT1_InterruptHandler 0027  
                                        _PORTBbits 0F81                       keypad_get_value@column_logic 0077  
                                        _TRISCbits 0F94                              ??_gpio_pin_initialize 0074  
                            ??_gpio_pin_read_logic 006D                             ?_mcal_layer_initialize 006A  
                                      _CCP1CONbits 0FBD                                        _CCP2CONbits 0FBA  
                                        _TXSTAbits 0FAC                                 relay_turn_on@F3066 0043  
                            keypad_get_value@value 0074                      convert_uint32_to_string@F3226 0092  
                    convert_uint16_to_string@F3219 009D                                        _BAUDCONbits 0FB8  
                                    __pidataCOMRAM 196C                                     _timer0_preload 000F  
                                   _timer1_preload 000B                                     _timer2_preload 0041  
                              start_initialization 18A8                                     _timer3_preload 0005  
MSSP_SPI_Msster_Mode_GPIO_PIN_Configurations@F3120 0064  MSSP_SPI_Msster_Mode_GPIO_PIN_Configurations@F3122 0063  
 MSSP_SPI_Slave_Mode_GPIO_PIN_Configurations@F3131 0060  MSSP_SPI_Msster_Mode_GPIO_PIN_Configurations@F3124 0062  
 MSSP_SPI_Slave_Mode_GPIO_PIN_Configurations@F3133 005F   MSSP_SPI_Slave_Mode_GPIO_PIN_Configurations@F3135 005E  
 MSSP_SPI_Slave_Mode_GPIO_PIN_Configurations@F3129 0061              __end_of_gpio_pin_direction_initialize 1532  
                    _gpio_pin_direction_initialize 141C                            ?_application_initialize 006A  
                        _EUSART_RxInterruptHandler 0035                               __end_of_MSSP_I2C_ISR 1A6E  
                       _EUSART_FramingErrorHandler 0033                                        __pdataBANK0 0080  
                     convert_uint8_to_string@F3212 0001                                           ?_ADC_ISR 006A  
                     __end_of_ecu_layer_initialize 1A30                              __end_of_EUSART_Rx_ISR 1A92  
                             __end_of_MSSP_SPI_ISR 1A6A                              __end_of_EUSART_Tx_ISR 1A82  
                                         ?_RB4_ISR 006A                                           ?_RB5_ISR 006A  
                                         ?_RB6_ISR 006A                                           ?_RB7_ISR 006A  
                                      __pbssCOMRAM 0001        _I2C_Report_Write_Collision_InterruptHandler 002F  
                   __end_of_application_initialize 1A5E                                    _MSSP_I2C_BC_ISR 1A6E  
                            _INT2_InterruptHandler 0025                              _TMR0_InterruptHandler 0011  
                     __end_of_InterruptManagerHigh 141C                      keypad_initialize@rows_counter 0078  
                                        __pintcode 0008                          gpio_pin_initialize@config 0073  
                                      __smallconst 1000                          _RB4_InterruptHandler_HIGH 0023  
                                         _CCP1_ISR 1A86                                           _CCP2_ISR 1A82  
                        gpio_pin_initialize@retVal 0075                          _RB7_InterruptHandler_HIGH 0017  
                         _RB5_InterruptHandler_LOW 001D                                           _INT0_ISR 1A7A  
                                         _INT1_ISR 1A76                                           _INT2_ISR 1A72  
                                RB4_ISR@RB4_Source 006A                                           _RB4_flag 0068  
                                         _PIE1bits 0F9D                                           _PIE2bits 0FA0  
                                         _RB5_flag 0067                                           _RB6_flag 0066  
                                         _RB7_flag 0065                                           i2u300_40 1262  
                                         i2u300_41 125E                                           i2u301_40 1270  
                                         i2u301_41 126C                                           i2u310_40 1306  
                                         i2u302_40 127E                                           i2u310_41 1302  
                                         i2u302_41 127A                                           i2u311_40 1314  
                                         i2u303_40 128E                                           i2u311_41 1310  
                                         i2u303_41 128A                                           i2u320_40 13A6  
                                         i2u312_40 1326                                           i2u304_40 12A6  
                                         i2u320_41 13A2                                           i2u312_41 1322  
                                         i2u304_41 12A2                                           i2u321_40 13B4  
                                         i2u313_40 1334                                           i2u305_40 12B4  
                                         i2u321_41 13B0                                           i2u313_41 1330  
                                         i2u305_41 12B0                                           i2u322_40 13C6  
                                         i2u314_40 1346                                           i2u306_40 12C6  
                                         i2u322_41 13C2                                           i2u314_41 1342  
                                         i2u306_41 12C2                                           i2u323_40 13D4  
                                         i2u315_40 1354                                           i2u307_40 12D4  
                                         i2u323_41 13D0                                           i2u315_41 1350  
                                         i2u307_41 12D0                                           i2u324_40 13E6  
                                         i2u316_40 1366                                           i2u308_40 12E6  
                                         i2u324_41 13E2                                           i2u316_41 1362  
                                         i2u308_41 12E2                                           i2u325_40 13F4  
                                         i2u317_40 1374                                           i2u309_40 12F4  
                                         i2u325_41 13F0                                           i2u317_41 1370  
                                         i2u309_41 12F0                                           i2u326_40 1406  
                                         i2u318_40 1386                                           i2u270_40 1066  
                                         i2u326_41 1402                                           i2u318_41 1382  
                                         i2u270_41 1062                                           i2u327_40 1414  
                                         i2u319_40 1394                                           i2u271_40 1074  
                                         i2u327_41 1410                                           i2u319_41 1390  
                                         i2u271_41 1070                                           i2u280_40 110E  
                                         i2u272_40 1086                                           i2u280_41 110A  
                                         i2u272_41 1082                                           i2u281_40 111C  
                                         i2u273_40 1094                                           i2u281_41 1118  
                                         i2u273_41 1090                                           _PIR1bits 0F9E  
                                         i2u290_40 11B2                                           i2u282_40 112A  
                                         i2u274_40 10A2                                           i2u266_40 1026  
                                         i2u290_41 11AE                                           i2u282_41 1126  
                                         i2u274_41 109E                                           i2u266_41 1022  
                                         i2u291_40 11C2                                           i2u283_40 113A  
                                         i2u275_40 10B2                                           i2u267_40 1034  
                                         i2u291_41 11BE                                           i2u283_41 1136  
                                         i2u275_41 10AE                                           i2u267_41 1030  
                                         _PIR2bits 0FA1                                           i2u292_40 11DA  
                                         i2u284_40 1152                                           i2u276_40 10CA  
                                         i2u268_40 1046                                           i2u292_41 11D6  
                                         i2u284_41 114E                                           i2u276_41 10C6  
                                         i2u268_41 1042                                           i2u293_40 11E8  
                                         i2u285_40 1160                                           i2u277_40 10D8  
                                         i2u269_40 1054                                           i2u293_41 11E4  
                                         i2u285_41 115C                                           i2u277_41 10D4  
                                         i2u269_41 1050                                           i2u294_40 11F6  
                                         i2u286_40 116E                                           i2u278_40 10E6  
                                         i2u294_41 11F2                                           i2u286_41 116A  
                                         i2u278_41 10E2                                           i2u295_40 1206  
                                         i2u287_40 117E                                           i2u279_40 10F6  
                                         i2u295_41 1202                                           i2u287_41 117A  
                                         i2u279_41 10F2                                           i2u296_40 121E  
                                         i2u288_40 1196                                           i2u296_41 121A  
                                         i2u288_41 1192                                           i2u297_40 122C  
                                         i2u289_40 11A4                                           i2u297_41 1228  
                                         i2u289_41 11A0                                           i2u298_40 123A  
                                         i2u298_41 1236                                           i2u299_40 124A  
                                         i2u299_41 1246                                           _TMR0_ISR 1A48  
                                         _TMR1_ISR 1A3C                                           _TMR2_ISR 1A5E  
                                         _TMR3_ISR 1A30                                         _ADCON0bits 0FC2  
                                       _ADCON1bits 0FC1                                         _ADCON2bits 0FC0  
                          __end_of_MSSP_I2C_BC_ISR 1A72                    keypad_get_value@columns_counter 007A  
                          ??_mcal_layer_initialize 006B                                        _INTCON2bits 0FF1  
                                      _INTCON3bits 0FF0                                          copy_data0 18BC  
                                        copy_data1 18DC                                  _keypad_initialize 183E  
                               ?_keypad_initialize 0076                               _ecu_layer_initialize 1A1E  
                                       _EECON1bits 0FA6                                           __Hrparam 0000  
                                         __Lrparam 0000                                ??_keypad_initialize 0077  
                                RB6_ISR@RB6_Source 006A                              _CCP1_InterruptHandler 003D  
                      __end_of_gpio_pin_initialize 196C                                 __end_of_btn_values 1011  
                      __end_of_gpio_pin_read_logic 17CA                              _TMR1_InterruptHandler 000D  
                                     _MSSP_I2C_ISR 1A6A                               _InterruptManagerHigh 0008  
                        __end_of_keypad_initialize 18A8                                           __ptext10 141C  
                                         __ptext20 1A66                                           __ptext12 1A30  
                                         __ptext21 1A6A                                           __ptext13 1A5E  
                                         __ptext30 1A8A                                           __ptext22 1A6E  
                                         __ptext14 1A3C                                           __ptext23 1A72  
                                         __ptext15 1A48                                           __ptext24 1A76  
                                         __ptext16 198C                                           __ptext25 1A7A  
                                         __ptext17 19A6                                           __ptext26 1A7E  
                                         __ptext18 19C0                                           __ptext27 1A90  
                                         __ptext19 19DA                                           __ptext28 1A82  
                                         __ptext29 1A86                              ?_ecu_layer_initialize 006A  
                                     _MSSP_SPI_ISR 1A66                                   _keypad_get_value 1646  
                                         isa$xinst 0000                                           int$flags 007B  
                        gpio_pin_read_logic@config 006B                          gpio_pin_read_logic@retVal 0071  
                                 ?_MSSP_I2C_BC_ISR 006A                                         _INTCONbits 0FF2  
                            ?_InterruptManagerHigh 006A                       __end_of_gpio_pin_write_logic 1646  
                                         intlevel2 0000                          _EUSART_TxInterruptHandler 0037  
                       gpio_pin_write_logic@config 006B                         gpio_pin_write_logic@retVal 0072  
                                   _port_registers 0080                                        _SSPCON1bits 0FC6  
                                      _SSPCON2bits 0FC5                              _CCP2_InterruptHandler 003B  
                           ??_ecu_layer_initialize 007A                              _TMR2_InterruptHandler 0009  
                                   _led_initialize 17CA  
